ASxxxx Linker V03.00 + NoICE + sdld,  page 1.
Hexadecimal  [32-Bits]

Area                                    Addr        Size        Decimal Bytes (Attributes)
--------------------------------        ----        ----        ------- ----- ------------
CABS                                00000000    00000000 =           0. bytes (ABS,CON,CODE)

      Value  Global                              Global Defined In Module
      -----  --------------------------------   ------------------------
C:   00000000  l_BIT_BANK                      
C:   00000000  l_CABS                          
C:   00000000  l_GSINIT1                       
C:   00000000  l_GSINIT5                       
C:   00000000  l_IABS                          
C:   00000000  l_PSEG                          
C:   00000000  l_REG_BANK_1                    
C:   00000000  l_REG_BANK_2                    
C:   00000000  l_REG_BANK_3                    
C:   00000000  l_RSEG                          
C:   00000000  l_RSEG0                         
C:   00000000  l_RSEG1                         
C:   00000000  l_XABS                          
C:   00000000  l_XINIT                         
C:   00000000  l_XISEG                         
C:   00000000  l__CODE                         
C:   00000000  s_BSEG                          
C:   00000000  s_CABS                          
C:   00000000  s_DSEG                          
C:   00000000  s_HOME                          
C:   00000000  s_IABS                          
C:   00000000  s_REG_BANK_0                    
C:   00000000  s_RSEG                          
C:   00000000  s_RSEG0                         
C:   00000000  s_RSEG1                         
C:   00000000  s_XABS                          
C:   00000001  s_PSEG                          
C:   00000001  s_XSEG                          
C:   00000002  l_BSEG_BYTES                    
C:   00000003  l_GSFINAL                       
C:   00000003  l_GSINIT0                       
C:   00000006  l_ISEG                          
C:   00000006  l_OSEG                          
C:   00000008  l_REG_BANK_0                    
C:   00000008  s_REG_BANK_1                    
C:   0000000A  l_BSEG                          
C:   0000000A  l_GSINIT2                       
C:   00000010  s_REG_BANK_2                    
C:   00000014  s_OSEG                          
C:   00000018  s_BIT_BANK                      
C:   00000018  s_REG_BANK_3                    
C:   0000001A  s_ISEG                          
C:   00000020  s_BSEG_BYTES                    
C:   00000020  s__CODE                         
C:   00000022  l_GSINIT3                       
C:   0000002A  l_GSINIT4                       
C:   0000002F  l_GSINIT                        
C:   00000050  l_XSEG                          
C:   00000051  l_HOME                          
C:   00000051  s_GSINIT0                       
ASxxxx Linker V03.00 + NoICE + sdld,  page 2.
Hexadecimal  [32-Bits]

Area                                    Addr        Size        Decimal Bytes (Attributes)
--------------------------------        ----        ----        ------- ----- ------------
CABS                                00000000    00000000 =           0. bytes (ABS,CON,CODE)

      Value  Global                              Global Defined In Module
      -----  --------------------------------   ------------------------
C:   00000051  s_XISEG                         
C:   00000054  s_GSINIT1                       
C:   00000054  s_GSINIT2                       
C:   0000005E  s_GSINIT3                       
C:   00000076  s_SSEG                          
C:   00000080  l_DSEG                          
C:   00000080  s_GSINIT4                       
C:   0000008A  l_SSEG                          
C:   000000AA  s_GSINIT                        
C:   000000AA  s_GSINIT5                       
C:   000000D9  s_GSFINAL                       
C:   000000DC  s_CSEG                          
C:   00000100  l_IRAM                          
C:   0000018F  l_CONST                         
C:   000013D1  l_CSEG                          
C:   000014AD  s_CONST                         
C:   0000163C  s_XINIT                         

ASxxxx Linker V03.00 + NoICE + sdld,  page 3.
Hexadecimal  [32-Bits]

Area                                    Addr        Size        Decimal Bytes (Attributes)
--------------------------------        ----        ----        ------- ----- ------------
.  .ABS.                            00000000    00000000 =           0. bytes (ABS,CON)

      Value  Global                              Global Defined In Module
      -----  --------------------------------   ------------------------
     00000000  .__.ABS.                           _startup
     00000080  G$P0$0$0                           5Code
     00000080  G$P0_0$0$0                         5Code
     00000080  _P0                                5Code
     00000080  _P0_0                              5Code
     00000081  G$P0_1$0$0                         5Code
     00000081  G$SP$0$0                           5Code
     00000081  _P0_1                              5Code
     00000081  _SP                                5Code
     00000082  G$DPL$0$0                          5Code
     00000082  G$P0_2$0$0                         5Code
     00000082  _DPL                               5Code
     00000082  _P0_2                              5Code
     00000083  G$BUS_SCL$0$0                      5Code
     00000083  G$DPH$0$0                          5Code
     00000083  G$P0_3$0$0                         5Code
     00000083  _BUS_SCL                           5Code
     00000083  _DPH                               5Code
     00000083  _P0_3                              5Code
     00000084  G$P0_4$0$0                         5Code
     00000084  G$P4$0$0                           5Code
     00000084  _P0_4                              5Code
     00000084  _P4                                5Code
     00000085  G$P0_5$0$0                         5Code
     00000085  G$P5$0$0                           5Code
     00000085  _P0_5                              5Code
     00000085  _P5                                5Code
     00000086  G$P0_6$0$0                         5Code
     00000086  G$P6$0$0                           5Code
     00000086  _P0_6                              5Code
     00000086  _P6                                5Code
     00000087  G$P0_7$0$0                         5Code
     00000087  G$PCON$0$0                         5Code
     00000087  _P0_7                              5Code
     00000087  _PCON                              5Code
     00000088  G$IT0$0$0                          5Code
     00000088  G$TCON$0$0                         5Code
     00000088  _IT0                               5Code
     00000088  _TCON                              5Code
     00000089  G$IE0$0$0                          5Code
     00000089  G$TMOD$0$0                         5Code
     00000089  _IE0                               5Code
     00000089  _TMOD                              5Code
     0000008A  G$IT1$0$0                          5Code
     0000008A  G$TL0$0$0                          5Code
     0000008A  _IT1                               5Code
     0000008A  _TL0                               5Code
     0000008B  G$IE1$0$0                          5Code
     0000008B  G$TL1$0$0                          5Code
     0000008B  _IE1                               5Code
ASxxxx Linker V03.00 + NoICE + sdld,  page 4.
Hexadecimal  [32-Bits]

Area                                    Addr        Size        Decimal Bytes (Attributes)
--------------------------------        ----        ----        ------- ----- ------------
.  .ABS.                            00000000    00000000 =           0. bytes (ABS,CON)

      Value  Global                              Global Defined In Module
      -----  --------------------------------   ------------------------
     0000008B  _TL1                               5Code
     0000008C  G$TH0$0$0                          5Code
     0000008C  G$TR0$0$0                          5Code
     0000008C  _TH0                               5Code
     0000008C  _TR0                               5Code
     0000008D  G$TF0$0$0                          5Code
     0000008D  G$TH1$0$0                          5Code
     0000008D  _TF0                               5Code
     0000008D  _TH1                               5Code
     0000008E  G$CKCON$0$0                        5Code
     0000008E  G$TR1$0$0                          5Code
     0000008E  _CKCON                             5Code
     0000008E  _TR1                               5Code
     0000008F  G$PSCTL$0$0                        5Code
     0000008F  G$TF1$0$0                          5Code
     0000008F  _PSCTL                             5Code
     0000008F  _TF1                               5Code
     00000090  G$P1$0$0                           5Code
     00000090  G$P1_0$0$0                         5Code
     00000090  _P1                                5Code
     00000090  _P1_0                              5Code
     00000091  G$P1_1$0$0                         5Code
     00000091  G$TMR3CN$0$0                       5Code
     00000091  _P1_1                              5Code
     00000091  _TMR3CN                            5Code
     00000092  G$P1_2$0$0                         5Code
     00000092  G$TMR3RLL$0$0                      5Code
     00000092  _P1_2                              5Code
     00000092  _TMR3RLL                           5Code
     00000093  G$P1_3$0$0                         5Code
     00000093  G$TMR3RLH$0$0                      5Code
     00000093  _P1_3                              5Code
     00000093  _TMR3RLH                           5Code
     00000094  G$P1_4$0$0                         5Code
     00000094  G$TMR3L$0$0                        5Code
     00000094  _P1_4                              5Code
     00000094  _TMR3L                             5Code
     00000095  G$P1_5$0$0                         5Code
     00000095  G$TMR3H$0$0                        5Code
     00000095  _P1_5                              5Code
     00000095  _TMR3H                             5Code
     00000096  G$P1_6$0$0                         5Code
     00000096  G$P7$0$0                           5Code
     00000096  _P1_6                              5Code
     00000096  _P7                                5Code
     00000097  G$P1_7$0$0                         5Code
     00000097  _P1_7                              5Code
     00000098  G$RI$0$0                           5Code
     00000098  G$RI0$0$0                          5Code
     00000098  G$SCON$0$0                         5Code
     00000098  G$SCON0$0$0                        5Code
ASxxxx Linker V03.00 + NoICE + sdld,  page 5.
Hexadecimal  [32-Bits]

Area                                    Addr        Size        Decimal Bytes (Attributes)
--------------------------------        ----        ----        ------- ----- ------------
.  .ABS.                            00000000    00000000 =           0. bytes (ABS,CON)

      Value  Global                              Global Defined In Module
      -----  --------------------------------   ------------------------
     00000098  _RI                                5Code
     00000098  _RI0                               5Code
     00000098  _SCON                              5Code
     00000098  _SCON0                             5Code
     00000099  G$SBUF$0$0                         5Code
     00000099  G$SBUF0$0$0                        5Code
     00000099  G$TI$0$0                           5Code
     00000099  G$TI0$0$0                          5Code
     00000099  _SBUF                              5Code
     00000099  _SBUF0                             5Code
     00000099  _TI                                5Code
     00000099  _TI0                               5Code
     0000009A  G$RB8$0$0                          5Code
     0000009A  G$RB80$0$0                         5Code
     0000009A  G$SPI0CFG$0$0                      5Code
     0000009A  _RB8                               5Code
     0000009A  _RB80                              5Code
     0000009A  _SPI0CFG                           5Code
     0000009B  G$SPI0DAT$0$0                      5Code
     0000009B  G$TB8$0$0                          5Code
     0000009B  G$TB80$0$0                         5Code
     0000009B  _SPI0DAT                           5Code
     0000009B  _TB8                               5Code
     0000009B  _TB80                              5Code
     0000009C  G$ADC1$0$0                         5Code
     0000009C  G$REN$0$0                          5Code
     0000009C  G$REN0$0$0                         5Code
     0000009C  _ADC1                              5Code
     0000009C  _REN                               5Code
     0000009C  _REN0                              5Code
     0000009D  G$MCE0$0$0                         5Code
     0000009D  G$SM2$0$0                          5Code
     0000009D  G$SM20$0$0                         5Code
     0000009D  G$SPI0CKR$0$0                      5Code
     0000009D  _MCE0                              5Code
     0000009D  _SM2                               5Code
     0000009D  _SM20                              5Code
     0000009D  _SPI0CKR                           5Code
     0000009E  G$CPT0CN$0$0                       5Code
     0000009E  G$SM1$0$0                          5Code
     0000009E  G$SM10$0$0                         5Code
     0000009E  _CPT0CN                            5Code
     0000009E  _SM1                               5Code
     0000009E  _SM10                              5Code
     0000009F  G$CPT1CN$0$0                       5Code
     0000009F  G$S0MODE$0$0                       5Code
     0000009F  G$SM0$0$0                          5Code
     0000009F  G$SM00$0$0                         5Code
     0000009F  _CPT1CN                            5Code
     0000009F  _S0MODE                            5Code
     0000009F  _SM0                               5Code
ASxxxx Linker V03.00 + NoICE + sdld,  page 6.
Hexadecimal  [32-Bits]

Area                                    Addr        Size        Decimal Bytes (Attributes)
--------------------------------        ----        ----        ------- ----- ------------
.  .ABS.                            00000000    00000000 =           0. bytes (ABS,CON)

      Value  Global                              Global Defined In Module
      -----  --------------------------------   ------------------------
     0000009F  _SM00                              5Code
     000000A0  G$P2$0$0                           5Code
     000000A0  G$P2_0$0$0                         5Code
     000000A0  _P2                                5Code
     000000A0  _P2_0                              5Code
     000000A1  G$EMI0TC$0$0                       5Code
     000000A1  G$P2_1$0$0                         5Code
     000000A1  _EMI0TC                            5Code
     000000A1  _P2_1                              5Code
     000000A2  G$P2_2$0$0                         5Code
     000000A2  _P2_2                              5Code
     000000A3  G$EMI0CF$0$0                       5Code
     000000A3  G$P2_3$0$0                         5Code
     000000A3  _EMI0CF                            5Code
     000000A3  _P2_3                              5Code
     000000A4  G$P0MDOUT$0$0                      5Code
     000000A4  G$P2_4$0$0                         5Code
     000000A4  G$PRT0CF$0$0                       5Code
     000000A4  _P0MDOUT                           5Code
     000000A4  _P2_4                              5Code
     000000A4  _PRT0CF                            5Code
     000000A5  G$P1MDOUT$0$0                      5Code
     000000A5  G$P2_5$0$0                         5Code
     000000A5  G$PRT1CF$0$0                       5Code
     000000A5  _P1MDOUT                           5Code
     000000A5  _P2_5                              5Code
     000000A5  _PRT1CF                            5Code
     000000A6  G$P2MDOUT$0$0                      5Code
     000000A6  G$P2_6$0$0                         5Code
     000000A6  G$PRT2CF$0$0                       5Code
     000000A6  _P2MDOUT                           5Code
     000000A6  _P2_6                              5Code
     000000A6  _PRT2CF                            5Code
     000000A7  G$P2_7$0$0                         5Code
     000000A7  G$P3MDOUT$0$0                      5Code
     000000A7  G$PRT3CF$0$0                       5Code
     000000A7  _P2_7                              5Code
     000000A7  _P3MDOUT                           5Code
     000000A7  _PRT3CF                            5Code
     000000A8  G$EX0$0$0                          5Code
     000000A8  G$IE$0$0                           5Code
     000000A8  _EX0                               5Code
     000000A8  _IE                                5Code
     000000A9  G$ET0$0$0                          5Code
     000000A9  G$SADDR0$0$0                       5Code
     000000A9  _ET0                               5Code
     000000A9  _SADDR0                            5Code
     000000AA  G$ADC1CN$0$0                       5Code
     000000AA  G$EX1$0$0                          5Code
     000000AA  _ADC1CN                            5Code
     000000AA  _EX1                               5Code
ASxxxx Linker V03.00 + NoICE + sdld,  page 7.
Hexadecimal  [32-Bits]

Area                                    Addr        Size        Decimal Bytes (Attributes)
--------------------------------        ----        ----        ------- ----- ------------
.  .ABS.                            00000000    00000000 =           0. bytes (ABS,CON)

      Value  Global                              Global Defined In Module
      -----  --------------------------------   ------------------------
     000000AB  G$ADC1CF$0$0                       5Code
     000000AB  G$ET1$0$0                          5Code
     000000AB  _ADC1CF                            5Code
     000000AB  _ET1                               5Code
     000000AC  G$AMX1SL$0$0                       5Code
     000000AC  G$ES$0$0                           5Code
     000000AC  G$ES0$0$0                          5Code
     000000AC  _AMX1SL                            5Code
     000000AC  _ES                                5Code
     000000AC  _ES0                               5Code
     000000AD  G$ET2$0$0                          5Code
     000000AD  G$P3IF$0$0                         5Code
     000000AD  _ET2                               5Code
     000000AD  _P3IF                              5Code
     000000AE  G$SADEN1$0$0                       5Code
     000000AE  _SADEN1                            5Code
     000000AF  G$EA$0$0                           5Code
     000000AF  G$EMI0CN$0$0                       5Code
     000000AF  G$_XPAGE$0$0                       5Code
     000000AF  _EA                                5Code
     000000AF  _EMI0CN                            5Code
     000000AF  __XPAGE                            5Code
     000000B0  G$P3$0$0                           5Code
     000000B0  G$P3_0$0$0                         5Code
     000000B0  _P3                                5Code
     000000B0  _P3_0                              5Code
     000000B1  G$OSCXCN$0$0                       5Code
     000000B1  G$P3_1$0$0                         5Code
     000000B1  _OSCXCN                            5Code
     000000B1  _P3_1                              5Code
     000000B2  G$OSCICN$0$0                       5Code
     000000B2  G$P3_2$0$0                         5Code
     000000B2  _OSCICN                            5Code
     000000B2  _P3_2                              5Code
     000000B3  G$P3_3$0$0                         5Code
     000000B3  _P3_3                              5Code
     000000B4  G$P3_4$0$0                         5Code
     000000B4  _P3_4                              5Code
     000000B5  G$P3_5$0$0                         5Code
     000000B5  G$P74OUT$0$0                       5Code
     000000B5  _P3_5                              5Code
     000000B5  _P74OUT                            5Code
     000000B6  G$FLSCL$0$0                        5Code
     000000B6  G$P3_6$0$0                         5Code
     000000B6  _FLSCL                             5Code
     000000B6  _P3_6                              5Code
     000000B7  G$FLACL$0$0                        5Code
     000000B7  G$P3_7$0$0                         5Code
     000000B7  _FLACL                             5Code
     000000B7  _P3_7                              5Code
     000000B8  G$IP$0$0                           5Code
ASxxxx Linker V03.00 + NoICE + sdld,  page 8.
Hexadecimal  [32-Bits]

Area                                    Addr        Size        Decimal Bytes (Attributes)
--------------------------------        ----        ----        ------- ----- ------------
.  .ABS.                            00000000    00000000 =           0. bytes (ABS,CON)

      Value  Global                              Global Defined In Module
      -----  --------------------------------   ------------------------
     000000B8  G$PX0$0$0                          5Code
     000000B8  _IP                                5Code
     000000B8  _PX0                               5Code
     000000B9  G$PT0$0$0                          5Code
     000000B9  G$SADEN0$0$0                       5Code
     000000B9  _PT0                               5Code
     000000B9  _SADEN0                            5Code
     000000BA  G$AMX0CF$0$0                       5Code
     000000BA  G$PX1$0$0                          5Code
     000000BA  _AMX0CF                            5Code
     000000BA  _PX1                               5Code
     000000BB  G$AMX0SL$0$0                       5Code
     000000BB  G$PT1$0$0                          5Code
     000000BB  _AMX0SL                            5Code
     000000BB  _PT1                               5Code
     000000BC  G$ADC0CF$0$0                       5Code
     000000BC  G$PS$0$0                           5Code
     000000BC  G$PS0$0$0                          5Code
     000000BC  _ADC0CF                            5Code
     000000BC  _PS                                5Code
     000000BC  _PS0                               5Code
     000000BD  G$P1MDIN$0$0                       5Code
     000000BD  G$PT2$0$0                          5Code
     000000BD  _P1MDIN                            5Code
     000000BD  _PT2                               5Code
     000000BE  G$ADC0L$0$0                        5Code
     000000BE  _ADC0L                             5Code
     000000BF  G$ADC0H$0$0                        5Code
     000000BF  _ADC0H                             5Code
     000000C0  G$BUS_TOE$0$0                      5Code
     000000C0  G$SMB0CN$0$0                       5Code
     000000C0  G$SMBTOE$0$0                       5Code
     000000C0  _BUS_TOE                           5Code
     000000C0  _SMB0CN                            5Code
     000000C0  _SMBTOE                            5Code
     000000C1  G$BUS_FTE$0$0                      5Code
     000000C1  G$SMB0STA$0$0                      5Code
     000000C1  G$SMBFTE$0$0                       5Code
     000000C1  _BUS_FTE                           5Code
     000000C1  _SMB0STA                           5Code
     000000C1  _SMBFTE                            5Code
     000000C2  G$AA$0$0                           5Code
     000000C2  G$BUS_AA$0$0                       5Code
     000000C2  G$SMB0DAT$0$0                      5Code
     000000C2  _AA                                5Code
     000000C2  _BUS_AA                            5Code
     000000C2  _SMB0DAT                           5Code
     000000C3  G$BUS_INT$0$0                      5Code
     000000C3  G$SI$0$0                           5Code
     000000C3  G$SMB0ADR$0$0                      5Code
     000000C3  _BUS_INT                           5Code
ASxxxx Linker V03.00 + NoICE + sdld,  page 9.
Hexadecimal  [32-Bits]

Area                                    Addr        Size        Decimal Bytes (Attributes)
--------------------------------        ----        ----        ------- ----- ------------
.  .ABS.                            00000000    00000000 =           0. bytes (ABS,CON)

      Value  Global                              Global Defined In Module
      -----  --------------------------------   ------------------------
     000000C3  _SI                                5Code
     000000C3  _SMB0ADR                           5Code
     000000C4  G$ADC0GTL$0$0                      5Code
     000000C4  G$BUS_STOP$0$0                     5Code
     000000C4  G$STO$0$0                          5Code
     000000C4  _ADC0GTL                           5Code
     000000C4  _BUS_STOP                          5Code
     000000C4  _STO                               5Code
     000000C5  G$ADC0GTH$0$0                      5Code
     000000C5  G$BUS_START$0$0                    5Code
     000000C5  G$STA$0$0                          5Code
     000000C5  _ADC0GTH                           5Code
     000000C5  _BUS_START                         5Code
     000000C5  _STA                               5Code
     000000C6  G$ADC0LTL$0$0                      5Code
     000000C6  G$BUS_EN$0$0                       5Code
     000000C6  G$ENSMB$0$0                        5Code
     000000C6  _ADC0LTL                           5Code
     000000C6  _BUS_EN                            5Code
     000000C6  _ENSMB                             5Code
     000000C7  G$ADC0LTH$0$0                      5Code
     000000C7  G$BUSY$0$0                         5Code
     000000C7  G$BUS_BUSY$0$0                     5Code
     000000C7  _ADC0LTH                           5Code
     000000C7  _BUSY                              5Code
     000000C7  _BUS_BUSY                          5Code
     000000C8  G$CPRL2$0$0                        5Code
     000000C8  G$T2CON$0$0                        5Code
     000000C8  _CPRL2                             5Code
     000000C8  _T2CON                             5Code
     000000C9  G$CT2$0$0                          5Code
     000000C9  G$T4CON$0$0                        5Code
     000000C9  _CT2                               5Code
     000000C9  _T4CON                             5Code
     000000CA  G$RCAP2L$0$0                       5Code
     000000CA  G$TR2$0$0                          5Code
     000000CA  _RCAP2L                            5Code
     000000CA  _TR2                               5Code
     000000CB  G$EXEN2$0$0                        5Code
     000000CB  G$RCAP2H$0$0                       5Code
     000000CB  _EXEN2                             5Code
     000000CB  _RCAP2H                            5Code
     000000CC  G$TCLK$0$0                         5Code
     000000CC  G$TL2$0$0                          5Code
     000000CC  _TCLK                              5Code
     000000CC  _TL2                               5Code
     000000CD  G$RCLK$0$0                         5Code
     000000CD  G$TH2$0$0                          5Code
     000000CD  _RCLK                              5Code
     000000CD  _TH2                               5Code
     000000CE  G$EXF2$0$0                         5Code
ASxxxx Linker V03.00 + NoICE + sdld,  page 10.
Hexadecimal  [32-Bits]

Area                                    Addr        Size        Decimal Bytes (Attributes)
--------------------------------        ----        ----        ------- ----- ------------
.  .ABS.                            00000000    00000000 =           0. bytes (ABS,CON)

      Value  Global                              Global Defined In Module
      -----  --------------------------------   ------------------------
     000000CE  _EXF2                              5Code
     000000CF  G$SMB0CR$0$0                       5Code
     000000CF  G$TF2$0$0                          5Code
     000000CF  _SMB0CR                            5Code
     000000CF  _TF2                               5Code
     000000D0  G$P$0$0                            5Code
     000000D0  G$PSW$0$0                          5Code
     000000D0  _P                                 5Code
     000000D0  _PSW                               5Code
     000000D1  G$F1$0$0                           5Code
     000000D1  G$REF0CN$0$0                       5Code
     000000D1  _F1                                5Code
     000000D1  _REF0CN                            5Code
     000000D2  G$DAC0L$0$0                        5Code
     000000D2  G$OV$0$0                           5Code
     000000D2  _DAC0L                             5Code
     000000D2  _OV                                5Code
     000000D3  G$DAC0H$0$0                        5Code
     000000D3  G$RS0$0$0                          5Code
     000000D3  _DAC0H                             5Code
     000000D3  _RS0                               5Code
     000000D4  G$DAC0CN$0$0                       5Code
     000000D4  G$RS1$0$0                          5Code
     000000D4  _DAC0CN                            5Code
     000000D4  _RS1                               5Code
     000000D5  G$DAC1L$0$0                        5Code
     000000D5  G$F0$0$0                           5Code
     000000D5  _DAC1L                             5Code
     000000D5  _F0                                5Code
     000000D6  G$AC$0$0                           5Code
     000000D6  G$DAC1H$0$0                        5Code
     000000D6  _AC                                5Code
     000000D6  _DAC1H                             5Code
     000000D7  G$CY$0$0                           5Code
     000000D7  G$DAC1CN$0$0                       5Code
     000000D7  _CY                                5Code
     000000D7  _DAC1CN                            5Code
     000000D8  G$CCF0$0$0                         5Code
     000000D8  G$PCA0CN$0$0                       5Code
     000000D8  _CCF0                              5Code
     000000D8  _PCA0CN                            5Code
     000000D9  G$CCF1$0$0                         5Code
     000000D9  G$PCA0MD$0$0                       5Code
     000000D9  _CCF1                              5Code
     000000D9  _PCA0MD                            5Code
     000000DA  G$CCF2$0$0                         5Code
     000000DA  G$PCA0CPM0$0$0                     5Code
     000000DA  _CCF2                              5Code
     000000DA  _PCA0CPM0                          5Code
     000000DB  G$CCF3$0$0                         5Code
     000000DB  G$PCA0CPM1$0$0                     5Code
ASxxxx Linker V03.00 + NoICE + sdld,  page 11.
Hexadecimal  [32-Bits]

Area                                    Addr        Size        Decimal Bytes (Attributes)
--------------------------------        ----        ----        ------- ----- ------------
.  .ABS.                            00000000    00000000 =           0. bytes (ABS,CON)

      Value  Global                              Global Defined In Module
      -----  --------------------------------   ------------------------
     000000DB  _CCF3                              5Code
     000000DB  _PCA0CPM1                          5Code
     000000DC  G$CCF4$0$0                         5Code
     000000DC  G$PCA0CPM2$0$0                     5Code
     000000DC  _CCF4                              5Code
     000000DC  _PCA0CPM2                          5Code
     000000DD  G$PCA0CPM3$0$0                     5Code
     000000DD  _PCA0CPM3                          5Code
     000000DE  G$CR$0$0                           5Code
     000000DE  G$PCA0CPM4$0$0                     5Code
     000000DE  _CR                                5Code
     000000DE  _PCA0CPM4                          5Code
     000000DF  G$CF$0$0                           5Code
     000000DF  _CF                                5Code
     000000E0  G$ACC$0$0                          5Code
     000000E0  _ACC                               5Code
     000000E1  G$XBR0$0$0                         5Code
     000000E1  _XBR0                              5Code
     000000E2  G$XBR1$0$0                         5Code
     000000E2  _XBR1                              5Code
     000000E3  G$XBR2$0$0                         5Code
     000000E3  _XBR2                              5Code
     000000E4  G$RCAP4L$0$0                       5Code
     000000E4  _RCAP4L                            5Code
     000000E5  G$RCAP4H$0$0                       5Code
     000000E5  _RCAP4H                            5Code
     000000E6  G$EIE1$0$0                         5Code
     000000E6  _EIE1                              5Code
     000000E7  G$EIE2$0$0                         5Code
     000000E7  _EIE2                              5Code
     000000E8  G$AD0LJST$0$0                      5Code
     000000E8  G$ADC0CN$0$0                       5Code
     000000E8  G$ADLJST$0$0                       5Code
     000000E8  _AD0LJST                           5Code
     000000E8  _ADC0CN                            5Code
     000000E8  _ADLJST                            5Code
     000000E9  G$AD0WINT$0$0                      5Code
     000000E9  G$ADWINT$0$0                       5Code
     000000E9  G$PCA0L$0$0                        5Code
     000000E9  _AD0WINT                           5Code
     000000E9  _ADWINT                            5Code
     000000E9  _PCA0L                             5Code
     000000EA  G$AD0CM0$0$0                       5Code
     000000EA  G$ADSTM0$0$0                       5Code
     000000EA  G$PCA0CPL0$0$0                     5Code
     000000EA  _AD0CM0                            5Code
     000000EA  _ADSTM0                            5Code
     000000EA  _PCA0CPL0                          5Code
     000000EB  G$AD0CM1$0$0                       5Code
     000000EB  G$ADSTM1$0$0                       5Code
     000000EB  G$PCA0CPL1$0$0                     5Code
ASxxxx Linker V03.00 + NoICE + sdld,  page 12.
Hexadecimal  [32-Bits]

Area                                    Addr        Size        Decimal Bytes (Attributes)
--------------------------------        ----        ----        ------- ----- ------------
.  .ABS.                            00000000    00000000 =           0. bytes (ABS,CON)

      Value  Global                              Global Defined In Module
      -----  --------------------------------   ------------------------
     000000EB  _AD0CM1                            5Code
     000000EB  _ADSTM1                            5Code
     000000EB  _PCA0CPL1                          5Code
     000000EC  G$AD0BUSY$0$0                      5Code
     000000EC  G$ADBUSY$0$0                       5Code
     000000EC  G$PCA0CPL2$0$0                     5Code
     000000EC  _AD0BUSY                           5Code
     000000EC  _ADBUSY                            5Code
     000000EC  _PCA0CPL2                          5Code
     000000ED  G$AD0INT$0$0                       5Code
     000000ED  G$ADCINT$0$0                       5Code
     000000ED  G$PCA0CPL3$0$0                     5Code
     000000ED  _AD0INT                            5Code
     000000ED  _ADCINT                            5Code
     000000ED  _PCA0CPL3                          5Code
     000000EE  G$AD0TM$0$0                        5Code
     000000EE  G$ADCTM$0$0                        5Code
     000000EE  G$PCA0CPL4$0$0                     5Code
     000000EE  _AD0TM                             5Code
     000000EE  _ADCTM                             5Code
     000000EE  _PCA0CPL4                          5Code
     000000EF  G$AD0EN$0$0                        5Code
     000000EF  G$ADCEN$0$0                        5Code
     000000EF  G$RSTSRC$0$0                       5Code
     000000EF  _AD0EN                             5Code
     000000EF  _ADCEN                             5Code
     000000EF  _RSTSRC                            5Code
     000000F0  G$B$0$0                            5Code
     000000F0  _B                                 5Code
     000000F1  G$SCON1$0$0                        5Code
     000000F1  _SCON1                             5Code
     000000F2  G$SBUF1$0$0                        5Code
     000000F2  _SBUF1                             5Code
     000000F3  G$SADDR1$0$0                       5Code
     000000F3  _SADDR1                            5Code
     000000F4  G$TL4$0$0                          5Code
     000000F4  _TL4                               5Code
     000000F5  G$TH4$0$0                          5Code
     000000F5  _B_5                               _gptrget
     000000F5  _TH4                               5Code
     000000F6  G$EIP1$0$0                         5Code
     000000F6  _B_6                               _gptrget
     000000F6  _EIP1                              5Code
     000000F7  G$EIP2$0$0                         5Code
     000000F7  _B_7                               _gptrget
     000000F7  _EIP2                              5Code
     000000F8  G$SPI0CN$0$0                       5Code
     000000F8  G$SPIEN$0$0                        5Code
     000000F8  _SPI0CN                            5Code
     000000F8  _SPIEN                             5Code
     000000F9  G$MSTEN$0$0                        5Code
ASxxxx Linker V03.00 + NoICE + sdld,  page 13.
Hexadecimal  [32-Bits]

Area                                    Addr        Size        Decimal Bytes (Attributes)
--------------------------------        ----        ----        ------- ----- ------------
.  .ABS.                            00000000    00000000 =           0. bytes (ABS,CON)

      Value  Global                              Global Defined In Module
      -----  --------------------------------   ------------------------
     000000F9  G$PCA0H$0$0                        5Code
     000000F9  _MSTEN                             5Code
     000000F9  _PCA0H                             5Code
     000000FA  G$PCA0CPH0$0$0                     5Code
     000000FA  G$SLVSEL$0$0                       5Code
     000000FA  _PCA0CPH0                          5Code
     000000FA  _SLVSEL                            5Code
     000000FB  G$PCA0CPH1$0$0                     5Code
     000000FB  G$TXBSY$0$0                        5Code
     000000FB  _PCA0CPH1                          5Code
     000000FB  _TXBSY                             5Code
     000000FC  G$PCA0CPH2$0$0                     5Code
     000000FC  G$RXOVRN$0$0                       5Code
     000000FC  _PCA0CPH2                          5Code
     000000FC  _RXOVRN                            5Code
     000000FD  G$MODF$0$0                         5Code
     000000FD  G$PCA0CPH3$0$0                     5Code
     000000FD  _MODF                              5Code
     000000FD  _PCA0CPH3                          5Code
     000000FE  G$PCA0CPH4$0$0                     5Code
     000000FE  G$WCOL$0$0                         5Code
     000000FE  _PCA0CPH4                          5Code
     000000FE  _WCOL                              5Code
     000000FF  G$SPIF$0$0                         5Code
     000000FF  G$WDTCN$0$0                        5Code
     000000FF  _SPIF                              5Code
     000000FF  _WDTCN                             5Code
     00008C8A  G$TMR0$0$0                         5Code
     00008C8A  _TMR0                              5Code
     00008D8B  G$TMR1$0$0                         5Code
     00008D8B  _TMR1                              5Code
     00009392  G$TMR3RL$0$0                       5Code
     00009392  _TMR3RL                            5Code
     00009594  G$TMR3$0$0                         5Code
     00009594  _TMR3                              5Code
     0000BFBE  G$ADC0$0$0                         5Code
     0000BFBE  _ADC0                              5Code
     0000C5C4  G$ADC0GT$0$0                       5Code
     0000C5C4  _ADC0GT                            5Code
     0000C7C6  G$ADC0LT$0$0                       5Code
     0000C7C6  _ADC0LT                            5Code
     0000CBCA  G$RCAP2$0$0                        5Code
     0000CBCA  _RCAP2                             5Code
     0000CDCC  G$TMR2$0$0                         5Code
     0000CDCC  _TMR2                              5Code
     0000D3D2  G$DAC0$0$0                         5Code
     0000D3D2  _DAC0                              5Code
     0000D6D5  G$DAC1$0$0                         5Code
     0000D6D5  _DAC1                              5Code
     0000E5E4  G$RCAP4$0$0                        5Code
     0000E5E4  _RCAP4                             5Code
ASxxxx Linker V03.00 + NoICE + sdld,  page 14.
Hexadecimal  [32-Bits]

Area                                    Addr        Size        Decimal Bytes (Attributes)
--------------------------------        ----        ----        ------- ----- ------------
.  .ABS.                            00000000    00000000 =           0. bytes (ABS,CON)

      Value  Global                              Global Defined In Module
      -----  --------------------------------   ------------------------
     0000F5F4  G$TMR4$0$0                         5Code
     0000F5F4  _TMR4                              5Code
     0000F9E9  G$PCA0$0$0                         5Code
     0000F9E9  _PCA0                              5Code
     0000FAEA  G$PCA0CP0$0$0                      5Code
     0000FAEA  _PCA0CP0                           5Code
     0000FBEB  G$PCA0CP1$0$0                      5Code
     0000FBEB  _PCA0CP1                           5Code
     0000FCEC  G$PCA0CP2$0$0                      5Code
     0000FCEC  _PCA0CP2                           5Code
     0000FDED  G$PCA0CP3$0$0                      5Code
     0000FDED  _PCA0CP3                           5Code
     0000FEEE  G$PCA0CP4$0$0                      5Code
     0000FEEE  _PCA0CP4                           5Code

ASxxxx Linker V03.00 + NoICE + sdld,  page 15.
Hexadecimal  [32-Bits]

Area                                    Addr        Size        Decimal Bytes (Attributes)
--------------------------------        ----        ----        ------- ----- ------------
BSEG_BYTES                          00000020    00000002 =           2. bytes (REL,CON)

      Value  Global                              Global Defined In Module
      -----  --------------------------------   ------------------------
ASxxxx Linker V03.00 + NoICE + sdld,  page 16.
Hexadecimal  [32-Bits]

Area                                    Addr        Size        Decimal Bytes (Attributes)
--------------------------------        ----        ----        ------- ----- ------------
REG_BANK_0                          00000000    00000008 =           8. bytes (REL,OVR)

      Value  Global                              Global Defined In Module
      -----  --------------------------------   ------------------------
ASxxxx Linker V03.00 + NoICE + sdld,  page 17.
Hexadecimal  [32-Bits]

Area                                    Addr        Size        Decimal Bytes (Attributes)
--------------------------------        ----        ----        ------- ----- ------------
DSEG                                00000000    00000080 =         128. bytes (REL,CON)

      Value  Global                              Global Defined In Module
      -----  --------------------------------   ------------------------
     0000000B  _vsprintf_PARM_2                   sprintf
     0000000E  _vsprintf_PARM_3                   sprintf
     00000012  _bp                                _bp
     00000013  _vprintf_PARM_2                    vprintf
     00000022  L5Code.lcd_clear$NumBytes$1$77     5Code
     00000023  L5Code.lcd_clear$Cmd$1$77          5Code
     00000025  L5Code.read_keypad$Data$1$78       5Code
     00000027  L5Code.i2c_write_data$start_reg$   5Code
     00000027  _i2c_write_data_PARM_2             5Code
     00000028  L5Code.i2c_write_data$buffer$1$9   5Code
     00000028  _i2c_write_data_PARM_3             5Code
     0000002B  L5Code.i2c_write_data$num_bytes$   5Code
     0000002B  _i2c_write_data_PARM_4             5Code
     0000002C  L5Code.i2c_read_data$start_reg$1   5Code
     0000002C  _i2c_read_data_PARM_2              5Code
     0000002D  L5Code.i2c_read_data$buffer$1$99   5Code
     0000002D  _i2c_read_data_PARM_3              5Code
     00000030  L5Code.i2c_read_data$num_bytes$1   5Code
     00000030  _i2c_read_data_PARM_4              5Code
     00000031  L5Code.Accel_Init$Data2$1$103      5Code
     00000032  G$PW_NEUT$0$0                      5Code
     00000032  _PW_NEUT                           5Code
     00000034  G$PW_MIN$0$0                       5Code
     00000034  _PW_MIN                            5Code
     00000036  G$PW_MAX$0$0                       5Code
     00000036  _PW_MAX                            5Code
     00000038  G$gx$0$0                           5Code
     00000038  _gx                                5Code
     0000003A  G$gy$0$0                           5Code
     0000003A  _gy                                5Code
     0000003C  G$x0$0$0                           5Code
     0000003C  _x0                                5Code
     0000003E  G$y0$0$0                           5Code
     0000003E  _y0                                5Code
     00000040  G$counts$0$0                       5Code
     00000040  _counts                            5Code
     00000042  G$MOTOR_PW$0$0                     5Code
     00000042  _MOTOR_PW                          5Code
     00000044  G$STEERING_PW$0$0                  5Code
     00000044  _STEERING_PW                       5Code
     00000046  G$ks$0$0                           5Code
     00000046  _ks                                5Code
     00000048  G$kdy$0$0                          5Code
     00000048  _kdy                               5Code
     0000004A  G$kdx$0$0                          5Code
     0000004A  _kdx                               5Code
     0000004C  G$ki$0$0                           5Code
     0000004C  _ki                                5Code
     0000004E  G$error_sum$0$0                    5Code
     0000004E  _error_sum                         5Code
ASxxxx Linker V03.00 + NoICE + sdld,  page 18.
Hexadecimal  [32-Bits]

Area                                    Addr        Size        Decimal Bytes (Attributes)
--------------------------------        ----        ----        ------- ----- ------------
DSEG                                00000000    00000080 =         128. bytes (REL,CON)

      Value  Global                              Global Defined In Module
      -----  --------------------------------   ------------------------
     00000050  L5Code.ReadAccel$Data$1$123        5Code
     00000055  L5Code.ReadAccel$avg_gy$1$123      5Code
     00000057  L5Code.getDesiredGains$data$1$13   5Code
     0000005A  L5Code.getDesiredGains$index$1$1   5Code
     00000068  __print_format_PARM_2              printf_large
     0000006B  __print_format_PARM_3              printf_large
     0000006E  __print_format_PARM_4              printf_large
ASxxxx Linker V03.00 + NoICE + sdld,  page 19.
Hexadecimal  [32-Bits]

Area                                    Addr        Size        Decimal Bytes (Attributes)
--------------------------------        ----        ----        ------- ----- ------------
OSEG                                00000014    00000006 =           6. bytes (REL,OVR)

      Value  Global                              Global Defined In Module
      -----  --------------------------------   ------------------------
     00000014  __divsint_PARM_2                   _divuint
     00000014  __divuint_PARM_2                   _divuint
     00000014  __gptrput_PARM_2                   _gptrput
     00000014  __mulint_PARM_2                    _mulint

ASxxxx Linker V03.00 + NoICE + sdld,  page 20.
Hexadecimal  [32-Bits]

Area                                    Addr        Size        Decimal Bytes (Attributes)
--------------------------------        ----        ----        ------- ----- ------------
ISEG                                0000001A    00000006 =           6. bytes (REL,CON)

      Value  Global                              Global Defined In Module
      -----  --------------------------------   ------------------------
ASxxxx Linker V03.00 + NoICE + sdld,  page 21.
Hexadecimal  [32-Bits]

Area                                    Addr        Size        Decimal Bytes (Attributes)
--------------------------------        ----        ----        ------- ----- ------------
SSEG                                00000076    0000008A =         138. bytes (REL,OVR)

      Value  Global                              Global Defined In Module
      -----  --------------------------------   ------------------------
     00000076  __start__stack                     5Code

ASxxxx Linker V03.00 + NoICE + sdld,  page 22.
Hexadecimal  [32-Bits]

Area                                    Addr        Size        Decimal Bytes (Attributes)
--------------------------------        ----        ----        ------- ----- ------------
XSEG                                00000001    00000050 =          80. bytes (REL,CON,XDATA)

      Value  Global                              Global Defined In Module
      -----  --------------------------------   ------------------------
D:   00000001  L5Code.lcd_print$text$1$73         5Code

ASxxxx Linker V03.00 + NoICE + sdld,  page 23.
Hexadecimal  [32-Bits]

Area                                    Addr        Size        Decimal Bytes (Attributes)
--------------------------------        ----        ----        ------- ----- ------------
HOME                                00000000    00000051 =          81. bytes (REL,CON,CODE)

      Value  Global                              Global Defined In Module
      -----  --------------------------------   ------------------------
C:   00000000  A$5Code$1094                       5Code
C:   00000003  A$5Code$1095                       5Code
C:   0000000B  A$5Code$1097                       5Code
C:   00000013  A$5Code$1099                       5Code
C:   0000001B  A$5Code$1101                       5Code
C:   00000023  A$5Code$1103                       5Code
C:   0000002B  A$5Code$1105                       5Code
C:   00000033  A$5Code$1107                       5Code
C:   0000003B  A$5Code$1109                       5Code
C:   00000043  A$5Code$1111                       5Code
C:   0000004B  A$5Code$1113                       5Code
C:   0000004E  A$5Code$1176                       5Code
C:   0000004E  __sdcc_program_startup             5Code

ASxxxx Linker V03.00 + NoICE + sdld,  page 24.
Hexadecimal  [32-Bits]

Area                                    Addr        Size        Decimal Bytes (Attributes)
--------------------------------        ----        ----        ------- ----- ------------
GSINIT0                             00000051    00000003 =           3. bytes (REL,CON,CODE)

      Value  Global                              Global Defined In Module
      -----  --------------------------------   ------------------------
C:   00000051  __sdcc_gsinit_startup              

ASxxxx Linker V03.00 + NoICE + sdld,  page 25.
Hexadecimal  [32-Bits]

Area                                    Addr        Size        Decimal Bytes (Attributes)
--------------------------------        ----        ----        ------- ----- ------------
GSINIT2                             00000054    0000000A =          10. bytes (REL,CON,CODE)

      Value  Global                              Global Defined In Module
      -----  --------------------------------   ------------------------
ASxxxx Linker V03.00 + NoICE + sdld,  page 26.
Hexadecimal  [32-Bits]

Area                                    Addr        Size        Decimal Bytes (Attributes)
--------------------------------        ----        ----        ------- ----- ------------
GSINIT3                             0000005E    00000022 =          34. bytes (REL,CON,CODE)

      Value  Global                              Global Defined In Module
      -----  --------------------------------   ------------------------
C:   0000005E  __mcs51_genXINIT                   

ASxxxx Linker V03.00 + NoICE + sdld,  page 27.
Hexadecimal  [32-Bits]

Area                                    Addr        Size        Decimal Bytes (Attributes)
--------------------------------        ----        ----        ------- ----- ------------
GSINIT4                             00000080    0000002A =          42. bytes (REL,CON,CODE)

      Value  Global                              Global Defined In Module
      -----  --------------------------------   ------------------------
C:   00000080  __mcs51_genRAMCLEAR                
C:   00000086  __mcs51_genXRAMCLEAR               

ASxxxx Linker V03.00 + NoICE + sdld,  page 28.
Hexadecimal  [32-Bits]

Area                                    Addr        Size        Decimal Bytes (Attributes)
--------------------------------        ----        ----        ------- ----- ------------
GSINIT                              000000AA    0000002F =          47. bytes (REL,CON,CODE)

      Value  Global                              Global Defined In Module
      -----  --------------------------------   ------------------------
C:   000000AA  A$5Code$1129                       5Code
C:   000000AA  C$5Code.c$30$1$159                 5Code
C:   000000AD  A$5Code$1130                       5Code
C:   000000B0  A$5Code$1133                       5Code
C:   000000B0  C$5Code.c$31$1$159                 5Code
C:   000000B3  A$5Code$1134                       5Code
C:   000000B6  A$5Code$1137                       5Code
C:   000000B6  C$5Code.c$32$1$159                 5Code
C:   000000B9  A$5Code$1138                       5Code
C:   000000BC  A$5Code$1141                       5Code
C:   000000BC  C$5Code.c$34$1$159                 5Code
C:   000000BD  A$5Code$1142                       5Code
C:   000000BF  A$5Code$1143                       5Code
C:   000000C1  A$5Code$1146                       5Code
C:   000000C1  C$5Code.c$35$1$159                 5Code
C:   000000C3  A$5Code$1147                       5Code
C:   000000C5  A$5Code$1150                       5Code
C:   000000C5  C$5Code.c$36$1$159                 5Code
C:   000000C7  A$5Code$1151                       5Code
C:   000000C9  A$5Code$1154                       5Code
C:   000000C9  C$5Code.c$37$1$159                 5Code
C:   000000CB  A$5Code$1155                       5Code
C:   000000CD  A$5Code$1158                       5Code
C:   000000CD  C$5Code.c$39$1$159                 5Code
C:   000000CF  A$5Code$1159                       5Code
C:   000000D1  A$5Code$1162                       5Code
C:   000000D1  C$5Code.c$41$1$159                 5Code
C:   000000D3  A$5Code$1163                       5Code
C:   000000D5  A$5Code$1166                       5Code
C:   000000D5  C$5Code.c$42$1$159                 5Code
C:   000000D7  A$5Code$1167                       5Code

ASxxxx Linker V03.00 + NoICE + sdld,  page 29.
Hexadecimal  [32-Bits]

Area                                    Addr        Size        Decimal Bytes (Attributes)
--------------------------------        ----        ----        ------- ----- ------------
GSFINAL                             000000D9    00000003 =           3. bytes (REL,CON,CODE)

      Value  Global                              Global Defined In Module
      -----  --------------------------------   ------------------------
C:   000000D9  A$5Code$1169                       5Code

ASxxxx Linker V03.00 + NoICE + sdld,  page 30.
Hexadecimal  [32-Bits]

Area                                    Addr        Size        Decimal Bytes (Attributes)
--------------------------------        ----        ----        ------- ----- ------------
CSEG                                000000DC    000013D1 =        5073. bytes (REL,CON,CODE)

      Value  Global                              Global Defined In Module
      -----  --------------------------------   ------------------------
C:   000000DC  A$5Code$1204                       5Code
C:   000000DC  C$c8051_SDCC.h$42$0$0              5Code
C:   000000DC  C$c8051_SDCC.h$46$1$31             5Code
C:   000000DC  G$SYSCLK_Init$0$0                  5Code
C:   000000DC  _SYSCLK_Init                       5Code
C:   000000DF  A$5Code$1207                       5Code
C:   000000DF  C$c8051_SDCC.h$49$1$31             5Code
C:   000000E1  A$5Code$1208                       5Code
C:   000000E3  A$5Code$1210                       5Code
C:   000000E4  A$5Code$1211                       5Code
C:   000000E7  A$5Code$1212                       5Code
C:   000000E8  A$5Code$1214                       5Code
C:   000000E9  A$5Code$1215                       5Code
C:   000000EA  A$5Code$1216                       5Code
C:   000000EC  A$5Code$1220                       5Code
C:   000000EC  C$c8051_SDCC.h$51$1$31             5Code
C:   000000EE  A$5Code$1221                       5Code
C:   000000F1  A$5Code$1224                       5Code
C:   000000F1  C$c8051_SDCC.h$53$1$31             5Code
C:   000000F4  A$5Code$1227                       5Code
C:   000000F4  C$c8051_SDCC.h$56$1$31             5Code
C:   000000F4  XG$SYSCLK_Init$0$0                 5Code
C:   000000F5  A$5Code$1240                       5Code
C:   000000F5  C$c8051_SDCC.h$64$1$31             5Code
C:   000000F5  C$c8051_SDCC.h$66$1$33             5Code
C:   000000F5  G$UART0_Init$0$0                   5Code
C:   000000F5  _UART0_Init                        5Code
C:   000000F8  A$5Code$1243                       5Code
C:   000000F8  C$c8051_SDCC.h$67$1$33             5Code
C:   000000FB  A$5Code$1246                       5Code
C:   000000FB  C$c8051_SDCC.h$68$1$33             5Code
C:   000000FE  A$5Code$1249                       5Code
C:   000000FE  C$c8051_SDCC.h$69$1$33             5Code
C:   00000100  A$5Code$1252                       5Code
C:   00000100  C$c8051_SDCC.h$70$1$33             5Code
C:   00000103  A$5Code$1255                       5Code
C:   00000103  C$c8051_SDCC.h$71$1$33             5Code
C:   00000106  A$5Code$1258                       5Code
C:   00000106  C$c8051_SDCC.h$73$1$33             5Code
C:   00000108  A$5Code$1261                       5Code
C:   00000108  C$c8051_SDCC.h$74$1$33             5Code
C:   0000010B  A$5Code$1264                       5Code
C:   0000010B  C$c8051_SDCC.h$75$1$33             5Code
C:   0000010B  XG$UART0_Init$0$0                  5Code
C:   0000010C  A$5Code$1277                       5Code
C:   0000010C  C$c8051_SDCC.h$83$1$33             5Code
C:   0000010C  C$c8051_SDCC.h$85$1$35             5Code
C:   0000010C  G$Sys_Init$0$0                     5Code
C:   0000010C  _Sys_Init                          5Code
C:   0000010F  A$5Code$1280                       5Code
ASxxxx Linker V03.00 + NoICE + sdld,  page 31.
Hexadecimal  [32-Bits]

Area                                    Addr        Size        Decimal Bytes (Attributes)
--------------------------------        ----        ----        ------- ----- ------------
CSEG                                000000DC    000013D1 =        5073. bytes (REL,CON,CODE)

      Value  Global                              Global Defined In Module
      -----  --------------------------------   ------------------------
C:   0000010F  C$c8051_SDCC.h$86$1$35             5Code
C:   00000112  A$5Code$1283                       5Code
C:   00000112  C$c8051_SDCC.h$88$1$35             5Code
C:   00000115  A$5Code$1286                       5Code
C:   00000115  C$c8051_SDCC.h$89$1$35             5Code
C:   00000118  A$5Code$1289                       5Code
C:   00000118  C$c8051_SDCC.h$91$1$35             5Code
C:   0000011B  A$5Code$1292                       5Code
C:   0000011B  C$c8051_SDCC.h$92$1$35             5Code
C:   0000011E  A$5Code$1295                       5Code
C:   0000011E  C$c8051_SDCC.h$93$1$35             5Code
C:   0000011E  XG$Sys_Init$0$0                    5Code
C:   0000011F  A$5Code$1308                       5Code
C:   0000011F  C$c8051_SDCC.h$98$1$35             5Code
C:   0000011F  G$putchar$0$0                      5Code
C:   0000011F  _putchar                           5Code
C:   00000121  A$5Code$1314                       5Code
C:   00000121  C$c8051_SDCC.h$100$1$37            5Code
C:   00000121  C$c8051_SDCC.h$101$1$37            5Code
C:   00000124  A$5Code$1315                       5Code
C:   00000126  A$5Code$1319                       5Code
C:   00000126  C$c8051_SDCC.h$102$1$37            5Code
C:   00000128  A$5Code$1322                       5Code
C:   00000128  C$c8051_SDCC.h$103$1$37            5Code
C:   00000128  XG$putchar$0$0                     5Code
C:   00000129  A$5Code$1340                       5Code
C:   00000129  C$c8051_SDCC.h$108$1$37            5Code
C:   00000129  C$c8051_SDCC.h$111$1$39            5Code
C:   00000129  C$c8051_SDCC.h$112$1$39            5Code
C:   00000129  G$getchar$0$0                      5Code
C:   00000129  _getchar                           5Code
C:   0000012C  A$5Code$1341                       5Code
C:   0000012E  A$5Code$1345                       5Code
C:   0000012E  C$c8051_SDCC.h$113$1$39            5Code
C:   00000131  A$5Code$1348                       5Code
C:   00000131  C$c8051_SDCC.h$114$1$39            5Code
C:   00000134  A$5Code$1351                       5Code
C:   00000134  C$c8051_SDCC.h$115$1$39            5Code
C:   00000137  A$5Code$1354                       5Code
C:   00000137  C$c8051_SDCC.h$116$1$39            5Code
C:   00000137  XG$getchar$0$0                     5Code
C:   00000138  A$5Code$1371                       5Code
C:   00000138  C$i2c.h$81$1$39                    5Code
C:   00000138  G$lcd_print$0$0                    5Code
C:   00000138  _lcd_print                         5Code
C:   0000013A  A$5Code$1372                       5Code
C:   0000013D  A$5Code$1375                       5Code
C:   0000013D  C$i2c.h$87$1$73                    5Code
C:   0000013F  A$5Code$1376                       5Code
C:   00000141  A$5Code$1377                       5Code
C:   00000142  A$5Code$1378                       5Code
ASxxxx Linker V03.00 + NoICE + sdld,  page 32.
Hexadecimal  [32-Bits]

Area                                    Addr        Size        Decimal Bytes (Attributes)
--------------------------------        ----        ----        ------- ----- ------------
CSEG                                000000DC    000013D1 =        5073. bytes (REL,CON,CODE)

      Value  Global                              Global Defined In Module
      -----  --------------------------------   ------------------------
C:   00000144  A$5Code$1379                       5Code
C:   00000145  A$5Code$1380                       5Code
C:   00000147  A$5Code$1381                       5Code
C:   00000148  A$5Code$1382                       5Code
C:   0000014A  A$5Code$1383                       5Code
C:   0000014D  A$5Code$1384                       5Code
C:   0000014F  A$5Code$1385                       5Code
C:   00000152  A$5Code$1386                       5Code
C:   00000154  A$5Code$1387                       5Code
C:   00000156  A$5Code$1388                       5Code
C:   00000158  A$5Code$1392                       5Code
C:   00000158  C$i2c.h$89$2$74                    5Code
C:   0000015A  A$5Code$1393                       5Code
C:   0000015C  A$5Code$1394                       5Code
C:   0000015D  A$5Code$1395                       5Code
C:   0000015F  A$5Code$1398                       5Code
C:   0000015F  C$i2c.h$90$1$73                    5Code
C:   00000161  A$5Code$1399                       5Code
C:   00000163  A$5Code$1400                       5Code
C:   00000164  A$5Code$1401                       5Code
C:   00000166  A$5Code$1402                       5Code
C:   00000167  A$5Code$1403                       5Code
C:   00000169  A$5Code$1404                       5Code
C:   0000016A  A$5Code$1405                       5Code
C:   0000016C  A$5Code$1406                       5Code
C:   0000016F  A$5Code$1407                       5Code
C:   00000172  A$5Code$1408                       5Code
C:   00000175  A$5Code$1411                       5Code
C:   00000175  C$i2c.h$93$1$73                    5Code
C:   00000178  A$5Code$1412                       5Code
C:   0000017B  A$5Code$1413                       5Code
C:   0000017E  A$5Code$1414                       5Code
C:   00000180  A$5Code$1417                       5Code
C:   00000182  A$5Code$1419                       5Code
C:   00000183  A$5Code$1420                       5Code
C:   00000184  A$5Code$1421                       5Code
C:   00000185  A$5Code$1422                       5Code
C:   00000187  A$5Code$1425                       5Code
C:   00000187  C$i2c.h$96$2$76                    5Code
C:   00000188  A$5Code$1426                       5Code
C:   0000018A  A$5Code$1427                       5Code
C:   0000018C  A$5Code$1428                       5Code
C:   0000018D  A$5Code$1429                       5Code
C:   0000018F  A$5Code$1430                       5Code
C:   00000191  A$5Code$1431                       5Code
C:   00000192  A$5Code$1432                       5Code
C:   00000193  A$5Code$1433                       5Code
C:   00000196  A$5Code$1434                       5Code
C:   00000197  A$5Code$1435                       5Code
C:   00000199  A$5Code$1436                       5Code
C:   0000019B  A$5Code$1437                       5Code
ASxxxx Linker V03.00 + NoICE + sdld,  page 33.
Hexadecimal  [32-Bits]

Area                                    Addr        Size        Decimal Bytes (Attributes)
--------------------------------        ----        ----        ------- ----- ------------
CSEG                                000000DC    000013D1 =        5073. bytes (REL,CON,CODE)

      Value  Global                              Global Defined In Module
      -----  --------------------------------   ------------------------
C:   0000019C  A$5Code$1438                       5Code
C:   0000019E  A$5Code$1439                       5Code
C:   000001A0  A$5Code$1440                       5Code
C:   000001A2  A$5Code$1441                       5Code
C:   000001A3  A$5Code$1445                       5Code
C:   000001A3  C$i2c.h$94$1$73                    5Code
C:   000001A4  A$5Code$1446                       5Code
C:   000001A6  A$5Code$1450                       5Code
C:   000001A6  C$i2c.h$99$1$73                    5Code
C:   000001A9  A$5Code$1451                       5Code
C:   000001AC  A$5Code$1452                       5Code
C:   000001AF  A$5Code$1453                       5Code
C:   000001B2  A$5Code$1454                       5Code
C:   000001B4  A$5Code$1455                       5Code
C:   000001B7  A$5Code$1456                       5Code
C:   000001BA  A$5Code$1458                       5Code
C:   000001BC  A$5Code$1461                       5Code
C:   000001BC  C$i2c.h$100$1$73                   5Code
C:   000001BC  XG$lcd_print$0$0                   5Code
C:   000001BD  A$5Code$1477                       5Code
C:   000001BD  C$i2c.h$103$1$73                   5Code
C:   000001BD  C$i2c.h$105$1$73                   5Code
C:   000001BD  G$lcd_clear$0$0                    5Code
C:   000001BD  _lcd_clear                         5Code
C:   000001C0  A$5Code$1481                       5Code
C:   000001C0  C$i2c.h$107$1$77                   5Code
C:   000001C2  A$5Code$1482                       5Code
C:   000001C4  A$5Code$1483                       5Code
C:   000001C6  A$5Code$1484                       5Code
C:   000001C9  A$5Code$1485                       5Code
C:   000001CC  A$5Code$1486                       5Code
C:   000001CF  A$5Code$1487                       5Code
C:   000001D2  A$5Code$1488                       5Code
C:   000001D5  A$5Code$1489                       5Code
C:   000001D8  A$5Code$1490                       5Code
C:   000001DB  A$5Code$1491                       5Code
C:   000001DD  A$5Code$1495                       5Code
C:   000001DD  C$i2c.h$109$1$77                   5Code
C:   000001E0  A$5Code$1498                       5Code
C:   000001E0  C$i2c.h$110$1$77                   5Code
C:   000001E3  A$5Code$1499                       5Code
C:   000001E6  A$5Code$1500                       5Code
C:   000001E9  A$5Code$1501                       5Code
C:   000001EC  A$5Code$1502                       5Code
C:   000001EF  A$5Code$1503                       5Code
C:   000001F2  A$5Code$1504                       5Code
C:   000001F5  A$5Code$1507                       5Code
C:   000001F5  C$i2c.h$111$1$77                   5Code
C:   000001F5  XG$lcd_clear$0$0                   5Code
C:   000001F6  A$5Code$1523                       5Code
C:   000001F6  C$i2c.h$114$1$77                   5Code
ASxxxx Linker V03.00 + NoICE + sdld,  page 34.
Hexadecimal  [32-Bits]

Area                                    Addr        Size        Decimal Bytes (Attributes)
--------------------------------        ----        ----        ------- ----- ------------
CSEG                                000000DC    000013D1 =        5073. bytes (REL,CON,CODE)

      Value  Global                              Global Defined In Module
      -----  --------------------------------   ------------------------
C:   000001F6  C$i2c.h$118$1$78                   5Code
C:   000001F6  G$read_keypad$0$0                  5Code
C:   000001F6  _read_keypad                       5Code
C:   000001F9  A$5Code$1524                       5Code
C:   000001FC  A$5Code$1525                       5Code
C:   000001FF  A$5Code$1526                       5Code
C:   00000202  A$5Code$1527                       5Code
C:   00000205  A$5Code$1528                       5Code
C:   00000208  A$5Code$1529                       5Code
C:   0000020B  A$5Code$1532                       5Code
C:   0000020B  C$i2c.h$119$1$78                   5Code
C:   0000020D  A$5Code$1533                       5Code
C:   00000210  A$5Code$1534                       5Code
C:   00000213  A$5Code$1535                       5Code
C:   00000215  A$5Code$1539                       5Code
C:   00000217  A$5Code$1540                       5Code
C:   00000219  A$5Code$1544                       5Code
C:   00000219  C$i2c.h$123$2$79                   5Code
C:   0000021B  A$5Code$1545                       5Code
C:   0000021D  A$5Code$1546                       5Code
C:   0000021F  A$5Code$1547                       5Code
C:   00000221  A$5Code$1548                       5Code
C:   00000223  A$5Code$1550                       5Code
C:   00000224  A$5Code$1551                       5Code
C:   00000225  A$5Code$1552                       5Code
C:   00000226  A$5Code$1553                       5Code
C:   00000227  A$5Code$1554                       5Code
C:   00000228  A$5Code$1555                       5Code
C:   00000229  A$5Code$1557                       5Code
C:   0000022C  A$5Code$1558                       5Code
C:   0000022E  A$5Code$1559                       5Code
C:   00000230  A$5Code$1560                       5Code
C:   00000231  A$5Code$1561                       5Code
C:   00000233  A$5Code$1562                       5Code
C:   00000234  A$5Code$1563                       5Code
C:   00000236  A$5Code$1564                       5Code
C:   00000237  A$5Code$1565                       5Code
C:   00000238  A$5Code$1566                       5Code
C:   0000023A  A$5Code$1569                       5Code
C:   0000023A  C$i2c.h$124$2$79                   5Code
C:   0000023C  A$5Code$1570                       5Code
C:   0000023D  A$5Code$1571                       5Code
C:   0000023F  A$5Code$1572                       5Code
C:   00000241  A$5Code$1576                       5Code
C:   00000241  C$i2c.h$121$1$78                   5Code
C:   00000242  A$5Code$1577                       5Code
C:   00000244  A$5Code$1578                       5Code
C:   00000247  A$5Code$1580                       5Code
C:   00000249  A$5Code$1583                       5Code
C:   00000249  C$i2c.h$127$1$78                   5Code
C:   0000024B  A$5Code$1584                       5Code
ASxxxx Linker V03.00 + NoICE + sdld,  page 35.
Hexadecimal  [32-Bits]

Area                                    Addr        Size        Decimal Bytes (Attributes)
--------------------------------        ----        ----        ------- ----- ------------
CSEG                                000000DC    000013D1 =        5073. bytes (REL,CON,CODE)

      Value  Global                              Global Defined In Module
      -----  --------------------------------   ------------------------
C:   0000024E  A$5Code$1585                       5Code
C:   00000251  A$5Code$1586                       5Code
C:   00000253  A$5Code$1590                       5Code
C:   00000253  C$i2c.h$129$1$78                   5Code
C:   00000255  A$5Code$1591                       5Code
C:   00000258  A$5Code$1592                       5Code
C:   0000025B  A$5Code$1593                       5Code
C:   0000025D  A$5Code$1597                       5Code
C:   0000025D  C$i2c.h$131$1$78                   5Code
C:   0000025F  A$5Code$1598                       5Code
C:   00000262  A$5Code$1599                       5Code
C:   00000265  A$5Code$1600                       5Code
C:   00000267  A$5Code$1604                       5Code
C:   00000267  C$i2c.h$133$1$78                   5Code
C:   00000269  A$5Code$1605                       5Code
C:   0000026C  A$5Code$1606                       5Code
C:   0000026F  A$5Code$1607                       5Code
C:   00000271  A$5Code$1611                       5Code
C:   00000271  C$i2c.h$135$1$78                   5Code
C:   00000274  A$5Code$1615                       5Code
C:   00000274  C$i2c.h$136$1$78                   5Code
C:   00000274  XG$read_keypad$0$0                 5Code
C:   00000275  A$5Code$1631                       5Code
C:   00000275  C$i2c.h$148$1$78                   5Code
C:   00000275  G$kpd_input$0$0                    5Code
C:   00000275  _kpd_input                         5Code
C:   00000277  A$5Code$1636                       5Code
C:   00000277  C$i2c.h$153$1$81                   5Code
C:   00000277  C$i2c.h$156$1$81                   5Code
C:   00000278  A$5Code$1637                       5Code
C:   00000279  A$5Code$1638                       5Code
C:   0000027A  A$5Code$1639                       5Code
C:   0000027B  A$5Code$1640                       5Code
C:   0000027D  A$5Code$1641                       5Code
C:   0000027F  A$5Code$1642                       5Code
C:   00000281  A$5Code$1643                       5Code
C:   00000283  A$5Code$1644                       5Code
C:   00000285  A$5Code$1645                       5Code
C:   00000287  A$5Code$1646                       5Code
C:   00000289  A$5Code$1647                       5Code
C:   0000028B  A$5Code$1648                       5Code
C:   0000028D  A$5Code$1649                       5Code
C:   00000290  A$5Code$1650                       5Code
C:   00000292  A$5Code$1651                       5Code
C:   00000294  A$5Code$1652                       5Code
C:   00000296  A$5Code$1653                       5Code
C:   00000298  A$5Code$1654                       5Code
C:   0000029A  A$5Code$1658                       5Code
C:   0000029A  C$i2c.h$158$1$81                   5Code
C:   0000029C  A$5Code$1659                       5Code
C:   0000029E  A$5Code$1660                       5Code
ASxxxx Linker V03.00 + NoICE + sdld,  page 36.
Hexadecimal  [32-Bits]

Area                                    Addr        Size        Decimal Bytes (Attributes)
--------------------------------        ----        ----        ------- ----- ------------
CSEG                                000000DC    000013D1 =        5073. bytes (REL,CON,CODE)

      Value  Global                              Global Defined In Module
      -----  --------------------------------   ------------------------
C:   000002A0  A$5Code$1661                       5Code
C:   000002A2  A$5Code$1662                       5Code
C:   000002A3  A$5Code$1663                       5Code
C:   000002A5  A$5Code$1664                       5Code
C:   000002A7  A$5Code$1665                       5Code
C:   000002A9  A$5Code$1666                       5Code
C:   000002AA  A$5Code$1667                       5Code
C:   000002AC  A$5Code$1668                       5Code
C:   000002AE  A$5Code$1669                       5Code
C:   000002B0  A$5Code$1670                       5Code
C:   000002B1  A$5Code$1671                       5Code
C:   000002B3  A$5Code$1672                       5Code
C:   000002B5  A$5Code$1673                       5Code
C:   000002B7  A$5Code$1674                       5Code
C:   000002B8  A$5Code$1675                       5Code
C:   000002BA  A$5Code$1676                       5Code
C:   000002BC  A$5Code$1677                       5Code
C:   000002BE  A$5Code$1678                       5Code
C:   000002BF  A$5Code$1679                       5Code
C:   000002C1  A$5Code$1680                       5Code
C:   000002C3  A$5Code$1681                       5Code
C:   000002C5  A$5Code$1682                       5Code
C:   000002C7  A$5Code$1683                       5Code
C:   000002C9  A$5Code$1684                       5Code
C:   000002CB  A$5Code$1685                       5Code
C:   000002CD  A$5Code$1686                       5Code
C:   000002D0  A$5Code$1687                       5Code
C:   000002D2  A$5Code$1688                       5Code
C:   000002D4  A$5Code$1689                       5Code
C:   000002D6  A$5Code$1692                       5Code
C:   000002D6  C$i2c.h$160$1$81                   5Code
C:   000002D9  A$5Code$1693                       5Code
C:   000002DC  A$5Code$1694                       5Code
C:   000002DD  A$5Code$1695                       5Code
C:   000002E0  A$5Code$1696                       5Code
C:   000002E2  A$5Code$1697                       5Code
C:   000002E4  A$5Code$1700                       5Code
C:   000002E6  A$5Code$1704                       5Code
C:   000002E6  C$i2c.h$166$3$84                   5Code
C:   000002E8  A$5Code$1705                       5Code
C:   000002EA  A$5Code$1706                       5Code
C:   000002EC  A$5Code$1707                       5Code
C:   000002EF  A$5Code$1708                       5Code
C:   000002F1  A$5Code$1709                       5Code
C:   000002F3  A$5Code$1710                       5Code
C:   000002F5  A$5Code$1711                       5Code
C:   000002F7  A$5Code$1712                       5Code
C:   000002F9  A$5Code$1713                       5Code
C:   000002FC  A$5Code$1714                       5Code
C:   000002FE  A$5Code$1716                       5Code
C:   00000301  A$5Code$1718                       5Code
ASxxxx Linker V03.00 + NoICE + sdld,  page 37.
Hexadecimal  [32-Bits]

Area                                    Addr        Size        Decimal Bytes (Attributes)
--------------------------------        ----        ----        ------- ----- ------------
CSEG                                000000DC    000013D1 =        5073. bytes (REL,CON,CODE)

      Value  Global                              Global Defined In Module
      -----  --------------------------------   ------------------------
C:   00000304  A$5Code$1719                       5Code
C:   00000305  A$5Code$1720                       5Code
C:   00000307  A$5Code$1721                       5Code
C:   00000309  A$5Code$1722                       5Code
C:   0000030B  A$5Code$1723                       5Code
C:   0000030D  A$5Code$1724                       5Code
C:   00000310  A$5Code$1725                       5Code
C:   00000312  A$5Code$1726                       5Code
C:   00000314  A$5Code$1727                       5Code
C:   00000316  A$5Code$1728                       5Code
C:   00000318  A$5Code$1732                       5Code
C:   00000318  C$i2c.h$167$2$82                   5Code
C:   0000031B  A$5Code$1736                       5Code
C:   0000031B  C$i2c.h$169$3$83                   5Code
C:   0000031D  A$5Code$1737                       5Code
C:   0000031F  A$5Code$1738                       5Code
C:   00000322  A$5Code$1739                       5Code
C:   00000324  A$5Code$1740                       5Code
C:   00000326  A$5Code$1741                       5Code
C:   00000328  A$5Code$1742                       5Code
C:   0000032B  A$5Code$1743                       5Code
C:   0000032E  A$5Code$1744                       5Code
C:   0000032F  A$5Code$1745                       5Code
C:   00000331  A$5Code$1746                       5Code
C:   00000333  A$5Code$1747                       5Code
C:   00000335  A$5Code$1748                       5Code
C:   00000338  A$5Code$1749                       5Code
C:   0000033A  A$5Code$1750                       5Code
C:   0000033C  A$5Code$1751                       5Code
C:   0000033E  A$5Code$1755                       5Code
C:   0000033E  C$i2c.h$170$3$83                   5Code
C:   00000340  A$5Code$1756                       5Code
C:   00000342  A$5Code$1757                       5Code
C:   00000345  A$5Code$1761                       5Code
C:   00000345  C$i2c.h$174$3$84                   5Code
C:   00000346  A$5Code$1762                       5Code
C:   00000347  A$5Code$1763                       5Code
C:   00000348  A$5Code$1764                       5Code
C:   0000034A  A$5Code$1765                       5Code
C:   0000034B  A$5Code$1766                       5Code
C:   0000034D  A$5Code$1767                       5Code
C:   0000034F  A$5Code$1768                       5Code
C:   00000351  A$5Code$1769                       5Code
C:   00000353  A$5Code$1770                       5Code
C:   00000355  A$5Code$1771                       5Code
C:   00000357  A$5Code$1772                       5Code
C:   00000359  A$5Code$1773                       5Code
C:   0000035B  A$5Code$1774                       5Code
C:   0000035D  A$5Code$1775                       5Code
C:   0000035F  A$5Code$1776                       5Code
C:   00000361  A$5Code$1777                       5Code
ASxxxx Linker V03.00 + NoICE + sdld,  page 38.
Hexadecimal  [32-Bits]

Area                                    Addr        Size        Decimal Bytes (Attributes)
--------------------------------        ----        ----        ------- ----- ------------
CSEG                                000000DC    000013D1 =        5073. bytes (REL,CON,CODE)

      Value  Global                              Global Defined In Module
      -----  --------------------------------   ------------------------
C:   00000363  A$5Code$1778                       5Code
C:   00000365  A$5Code$1779                       5Code
C:   00000367  A$5Code$1780                       5Code
C:   0000036A  A$5Code$1781                       5Code
C:   0000036C  A$5Code$1782                       5Code
C:   0000036E  A$5Code$1783                       5Code
C:   00000370  A$5Code$1784                       5Code
C:   00000372  A$5Code$1785                       5Code
C:   00000374  A$5Code$1786                       5Code
C:   00000376  A$5Code$1787                       5Code
C:   00000378  A$5Code$1788                       5Code
C:   0000037A  A$5Code$1791                       5Code
C:   0000037A  C$i2c.h$175$1$81                   5Code
C:   0000037C  A$5Code$1792                       5Code
C:   0000037E  A$5Code$1793                       5Code
C:   00000381  A$5Code$1794                       5Code
C:   00000383  A$5Code$1795                       5Code
C:   00000385  A$5Code$1796                       5Code
C:   00000387  A$5Code$1797                       5Code
C:   0000038A  A$5Code$1798                       5Code
C:   0000038C  A$5Code$1799                       5Code
C:   0000038E  A$5Code$1800                       5Code
C:   00000390  A$5Code$1801                       5Code
C:   00000392  A$5Code$1802                       5Code
C:   00000394  A$5Code$1803                       5Code
C:   00000396  A$5Code$1804                       5Code
C:   00000397  A$5Code$1805                       5Code
C:   00000398  A$5Code$1806                       5Code
C:   00000399  A$5Code$1807                       5Code
C:   0000039A  A$5Code$1808                       5Code
C:   0000039B  A$5Code$1809                       5Code
C:   0000039C  A$5Code$1810                       5Code
C:   0000039D  A$5Code$1811                       5Code
C:   0000039F  A$5Code$1812                       5Code
C:   000003A0  A$5Code$1813                       5Code
C:   000003A1  A$5Code$1814                       5Code
C:   000003A3  A$5Code$1815                       5Code
C:   000003A4  A$5Code$1819                       5Code
C:   000003A4  C$i2c.h$176$3$84                   5Code
C:   000003A6  A$5Code$1820                       5Code
C:   000003A8  A$5Code$1821                       5Code
C:   000003AA  A$5Code$1822                       5Code
C:   000003AC  A$5Code$1823                       5Code
C:   000003AF  A$5Code$1824                       5Code
C:   000003B1  A$5Code$1825                       5Code
C:   000003B3  A$5Code$1826                       5Code
C:   000003B5  A$5Code$1827                       5Code
C:   000003B7  A$5Code$1828                       5Code
C:   000003B9  A$5Code$1829                       5Code
C:   000003BA  A$5Code$1830                       5Code
C:   000003BD  A$5Code$1831                       5Code
ASxxxx Linker V03.00 + NoICE + sdld,  page 39.
Hexadecimal  [32-Bits]

Area                                    Addr        Size        Decimal Bytes (Attributes)
--------------------------------        ----        ----        ------- ----- ------------
CSEG                                000000DC    000013D1 =        5073. bytes (REL,CON,CODE)

      Value  Global                              Global Defined In Module
      -----  --------------------------------   ------------------------
C:   000003C0  A$5Code$1832                       5Code
C:   000003C1  A$5Code$1833                       5Code
C:   000003C3  A$5Code$1834                       5Code
C:   000003C5  A$5Code$1835                       5Code
C:   000003C7  A$5Code$1836                       5Code
C:   000003C9  A$5Code$1837                       5Code
C:   000003CB  A$5Code$1838                       5Code
C:   000003CE  A$5Code$1839                       5Code
C:   000003D0  A$5Code$1840                       5Code
C:   000003D2  A$5Code$1841                       5Code
C:   000003D4  A$5Code$1842                       5Code
C:   000003D6  A$5Code$1843                       5Code
C:   000003D8  A$5Code$1847                       5Code
C:   000003D8  C$i2c.h$164$1$81                   5Code
C:   000003D9  A$5Code$1848                       5Code
C:   000003DA  A$5Code$1849                       5Code
C:   000003DB  A$5Code$1850                       5Code
C:   000003DD  A$5Code$1851                       5Code
C:   000003DF  A$5Code$1852                       5Code
C:   000003E1  A$5Code$1853                       5Code
C:   000003E4  A$5Code$1857                       5Code
C:   000003E4  C$i2c.h$179$1$81                   5Code
C:   000003E6  A$5Code$1858                       5Code
C:   000003E8  A$5Code$1862                       5Code
C:   000003E8  C$i2c.h$180$1$81                   5Code
C:   000003E8  XG$kpd_input$0$0                   5Code
C:   000003E9  A$5Code$1876                       5Code
C:   000003E9  C$i2c.h$189$1$81                   5Code
C:   000003E9  G$delay_time$0$0                   5Code
C:   000003E9  _delay_time                        5Code
C:   000003EB  A$5Code$1877                       5Code
C:   000003ED  A$5Code$1878                       5Code
C:   000003EF  A$5Code$1879                       5Code
C:   000003F0  A$5Code$1882                       5Code
C:   000003F0  C$i2c.h$192$1$86                   5Code
C:   000003F2  A$5Code$1883                       5Code
C:   000003F4  A$5Code$1884                       5Code
C:   000003F6  A$5Code$1885                       5Code
C:   000003F8  A$5Code$1887                       5Code
C:   000003F9  A$5Code$1888                       5Code
C:   000003FA  A$5Code$1889                       5Code
C:   000003FB  A$5Code$1890                       5Code
C:   000003FC  A$5Code$1891                       5Code
C:   000003FD  A$5Code$1892                       5Code
C:   000003FE  A$5Code$1893                       5Code
C:   000003FF  A$5Code$1894                       5Code
C:   00000400  A$5Code$1895                       5Code
C:   00000401  A$5Code$1896                       5Code
C:   00000403  A$5Code$1897                       5Code
C:   00000404  A$5Code$1898                       5Code
C:   00000407  A$5Code$1899                       5Code
ASxxxx Linker V03.00 + NoICE + sdld,  page 40.
Hexadecimal  [32-Bits]

Area                                    Addr        Size        Decimal Bytes (Attributes)
--------------------------------        ----        ----        ------- ----- ------------
CSEG                                000000DC    000013D1 =        5073. bytes (REL,CON,CODE)

      Value  Global                              Global Defined In Module
      -----  --------------------------------   ------------------------
C:   00000408  A$5Code$1900                       5Code
C:   0000040B  A$5Code$1901                       5Code
C:   0000040C  A$5Code$1902                       5Code
C:   0000040F  A$5Code$1903                       5Code
C:   00000410  A$5Code$1905                       5Code
C:   00000412  A$5Code$1909                       5Code
C:   00000412  C$i2c.h$193$1$86                   5Code
C:   00000412  XG$delay_time$0$0                  5Code
C:   00000413  A$5Code$1923                       5Code
C:   00000413  C$i2c.h$196$1$86                   5Code
C:   00000413  C$i2c.h$198$1$88                   5Code
C:   00000413  G$i2c_start$0$0                    5Code
C:   00000413  _i2c_start                         5Code
C:   00000416  A$5Code$1926                       5Code
C:   00000416  C$i2c.h$199$1$88                   5Code
C:   00000418  A$5Code$1930                       5Code
C:   00000418  C$i2c.h$200$1$88                   5Code
C:   0000041B  A$5Code$1933                       5Code
C:   0000041B  C$i2c.h$201$1$88                   5Code
C:   0000041D  A$5Code$1936                       5Code
C:   0000041D  C$i2c.h$202$1$88                   5Code
C:   0000041F  A$5Code$1939                       5Code
C:   0000041F  C$i2c.h$203$1$88                   5Code
C:   0000041F  XG$i2c_start$0$0                   5Code
C:   00000420  A$5Code$1952                       5Code
C:   00000420  C$i2c.h$206$1$88                   5Code
C:   00000420  G$i2c_write$0$0                    5Code
C:   00000420  _i2c_write                         5Code
C:   00000423  A$5Code$1958                       5Code
C:   00000423  C$i2c.h$209$1$90                   5Code
C:   00000423  C$i2c.h$210$1$90                   5Code
C:   00000426  A$5Code$1959                       5Code
C:   00000428  A$5Code$1963                       5Code
C:   00000428  C$i2c.h$211$1$90                   5Code
C:   00000428  XG$i2c_write$0$0                   5Code
C:   00000429  A$5Code$1976                       5Code
C:   00000429  C$i2c.h$214$1$90                   5Code
C:   00000429  G$i2c_write_and_stop$0$0           5Code
C:   00000429  _i2c_write_and_stop                5Code
C:   0000042C  A$5Code$1979                       5Code
C:   0000042C  C$i2c.h$217$1$92                   5Code
C:   0000042E  A$5Code$1985                       5Code
C:   0000042E  C$i2c.h$218$1$92                   5Code
C:   0000042E  C$i2c.h$219$1$92                   5Code
C:   00000431  A$5Code$1986                       5Code
C:   00000433  A$5Code$1990                       5Code
C:   00000433  C$i2c.h$220$1$92                   5Code
C:   00000433  XG$i2c_write_and_stop$0$0          5Code
C:   00000434  A$5Code$2006                       5Code
C:   00000434  C$i2c.h$223$1$92                   5Code
C:   00000434  C$i2c.h$226$1$94                   5Code
ASxxxx Linker V03.00 + NoICE + sdld,  page 41.
Hexadecimal  [32-Bits]

Area                                    Addr        Size        Decimal Bytes (Attributes)
--------------------------------        ----        ----        ------- ----- ------------
CSEG                                000000DC    000013D1 =        5073. bytes (REL,CON,CODE)

      Value  Global                              Global Defined In Module
      -----  --------------------------------   ------------------------
C:   00000434  G$i2c_read$0$0                     5Code
C:   00000434  _i2c_read                          5Code
C:   00000437  A$5Code$2009                       5Code
C:   00000437  C$i2c.h$227$1$94                   5Code
C:   0000043A  A$5Code$2012                       5Code
C:   0000043A  C$i2c.h$228$1$94                   5Code
C:   0000043C  A$5Code$2017                       5Code
C:   0000043C  C$i2c.h$229$1$94                   5Code
C:   0000043C  C$i2c.h$230$1$94                   5Code
C:   0000043C  XG$i2c_read$0$0                    5Code
C:   0000043D  A$5Code$2033                       5Code
C:   0000043D  C$i2c.h$233$1$94                   5Code
C:   0000043D  C$i2c.h$236$1$96                   5Code
C:   0000043D  G$i2c_read_and_stop$0$0            5Code
C:   0000043D  _i2c_read_and_stop                 5Code
C:   00000440  A$5Code$2036                       5Code
C:   00000440  C$i2c.h$237$1$96                   5Code
C:   00000442  A$5Code$2039                       5Code
C:   00000442  C$i2c.h$238$1$96                   5Code
C:   00000444  A$5Code$2042                       5Code
C:   00000444  C$i2c.h$239$1$96                   5Code
C:   00000446  A$5Code$2048                       5Code
C:   00000446  C$i2c.h$240$1$96                   5Code
C:   00000446  C$i2c.h$241$1$96                   5Code
C:   00000449  A$5Code$2049                       5Code
C:   0000044B  A$5Code$2053                       5Code
C:   0000044B  C$i2c.h$242$1$96                   5Code
C:   0000044D  A$5Code$2056                       5Code
C:   0000044D  C$i2c.h$243$1$96                   5Code
C:   0000044D  XG$i2c_read_and_stop$0$0           5Code
C:   0000044E  A$5Code$2073                       5Code
C:   0000044E  C$i2c.h$246$1$96                   5Code
C:   0000044E  G$i2c_write_data$0$0               5Code
C:   0000044E  _i2c_write_data                    5Code
C:   00000450  A$5Code$2076                       5Code
C:   00000450  C$i2c.h$250$1$98                   5Code
C:   00000452  A$5Code$2077                       5Code
C:   00000455  A$5Code$2078                       5Code
C:   00000457  A$5Code$2081                       5Code
C:   00000457  C$i2c.h$251$1$98                   5Code
C:   00000459  A$5Code$2082                       5Code
C:   0000045A  A$5Code$2083                       5Code
C:   0000045C  A$5Code$2084                       5Code
C:   0000045F  A$5Code$2087                       5Code
C:   0000045F  C$i2c.h$252$1$98                   5Code
C:   00000462  A$5Code$2088                       5Code
C:   00000465  A$5Code$2091                       5Code
C:   00000467  A$5Code$2093                       5Code
C:   00000469  A$5Code$2094                       5Code
C:   0000046B  A$5Code$2095                       5Code
C:   0000046C  A$5Code$2096                       5Code
ASxxxx Linker V03.00 + NoICE + sdld,  page 42.
Hexadecimal  [32-Bits]

Area                                    Addr        Size        Decimal Bytes (Attributes)
--------------------------------        ----        ----        ------- ----- ------------
CSEG                                000000DC    000013D1 =        5073. bytes (REL,CON,CODE)

      Value  Global                              Global Defined In Module
      -----  --------------------------------   ------------------------
C:   0000046F  A$5Code$2097                       5Code
C:   00000470  A$5Code$2099                       5Code
C:   00000472  A$5Code$2100                       5Code
C:   00000474  A$5Code$2101                       5Code
C:   00000475  A$5Code$2102                       5Code
C:   00000476  A$5Code$2103                       5Code
C:   00000477  A$5Code$2104                       5Code
C:   00000478  A$5Code$2105                       5Code
C:   0000047A  A$5Code$2106                       5Code
C:   0000047C  A$5Code$2107                       5Code
C:   0000047F  A$5Code$2108                       5Code
C:   00000481  A$5Code$2109                       5Code
C:   00000483  A$5Code$2112                       5Code
C:   00000483  C$i2c.h$254$1$98                   5Code
C:   00000484  A$5Code$2113                       5Code
C:   00000486  A$5Code$2114                       5Code
C:   00000487  A$5Code$2115                       5Code
C:   00000488  A$5Code$2116                       5Code
C:   0000048A  A$5Code$2117                       5Code
C:   0000048B  A$5Code$2118                       5Code
C:   0000048D  A$5Code$2119                       5Code
C:   0000048F  A$5Code$2120                       5Code
C:   00000491  A$5Code$2121                       5Code
C:   00000493  A$5Code$2122                       5Code
C:   00000496  A$5Code$2123                       5Code
C:   00000498  A$5Code$2124                       5Code
C:   0000049A  A$5Code$2125                       5Code
C:   0000049D  A$5Code$2126                       5Code
C:   0000049F  A$5Code$2129                       5Code
C:   0000049F  C$i2c.h$253$1$98                   5Code
C:   000004A0  A$5Code$2130                       5Code
C:   000004A2  A$5Code$2134                       5Code
C:   000004A2  C$i2c.h$255$1$98                   5Code
C:   000004A4  A$5Code$2135                       5Code
C:   000004A6  A$5Code$2136                       5Code
C:   000004A7  A$5Code$2137                       5Code
C:   000004AA  A$5Code$2138                       5Code
C:   000004AB  A$5Code$2140                       5Code
C:   000004AC  A$5Code$2141                       5Code
C:   000004AE  A$5Code$2142                       5Code
C:   000004AF  A$5Code$2143                       5Code
C:   000004B0  A$5Code$2144                       5Code
C:   000004B2  A$5Code$2145                       5Code
C:   000004B3  A$5Code$2146                       5Code
C:   000004B5  A$5Code$2147                       5Code
C:   000004B7  A$5Code$2148                       5Code
C:   000004B9  A$5Code$2149                       5Code
C:   000004BB  A$5Code$2150                       5Code
C:   000004BE  A$5Code$2151                       5Code
C:   000004C0  A$5Code$2152                       5Code
C:   000004C3  A$5Code$2155                       5Code
ASxxxx Linker V03.00 + NoICE + sdld,  page 43.
Hexadecimal  [32-Bits]

Area                                    Addr        Size        Decimal Bytes (Attributes)
--------------------------------        ----        ----        ------- ----- ------------
CSEG                                000000DC    000013D1 =        5073. bytes (REL,CON,CODE)

      Value  Global                              Global Defined In Module
      -----  --------------------------------   ------------------------
C:   000004C3  C$i2c.h$256$1$98                   5Code
C:   000004C3  XG$i2c_write_data$0$0              5Code
C:   000004C4  A$5Code$2172                       5Code
C:   000004C4  C$i2c.h$259$1$98                   5Code
C:   000004C4  G$i2c_read_data$0$0                5Code
C:   000004C4  _i2c_read_data                     5Code
C:   000004C6  A$5Code$2175                       5Code
C:   000004C6  C$i2c.h$262$1$100                  5Code
C:   000004C8  A$5Code$2176                       5Code
C:   000004CB  A$5Code$2177                       5Code
C:   000004CD  A$5Code$2180                       5Code
C:   000004CD  C$i2c.h$263$1$100                  5Code
C:   000004CF  A$5Code$2181                       5Code
C:   000004D1  A$5Code$2182                       5Code
C:   000004D2  A$5Code$2183                       5Code
C:   000004D4  A$5Code$2184                       5Code
C:   000004D6  A$5Code$2185                       5Code
C:   000004D9  A$5Code$2188                       5Code
C:   000004D9  C$i2c.h$264$1$100                  5Code
C:   000004DC  A$5Code$2189                       5Code
C:   000004DF  A$5Code$2192                       5Code
C:   000004DF  C$i2c.h$265$1$100                  5Code
C:   000004E2  A$5Code$2193                       5Code
C:   000004E4  A$5Code$2196                       5Code
C:   000004E4  C$i2c.h$266$1$100                  5Code
C:   000004E6  A$5Code$2197                       5Code
C:   000004E7  A$5Code$2198                       5Code
C:   000004E9  A$5Code$2199                       5Code
C:   000004EC  A$5Code$2202                       5Code
C:   000004EE  A$5Code$2204                       5Code
C:   000004F0  A$5Code$2205                       5Code
C:   000004F2  A$5Code$2206                       5Code
C:   000004F3  A$5Code$2207                       5Code
C:   000004F6  A$5Code$2208                       5Code
C:   000004F7  A$5Code$2210                       5Code
C:   000004F9  A$5Code$2211                       5Code
C:   000004FB  A$5Code$2212                       5Code
C:   000004FC  A$5Code$2213                       5Code
C:   000004FD  A$5Code$2214                       5Code
C:   000004FE  A$5Code$2215                       5Code
C:   000004FF  A$5Code$2216                       5Code
C:   00000501  A$5Code$2217                       5Code
C:   00000503  A$5Code$2218                       5Code
C:   00000506  A$5Code$2219                       5Code
C:   00000508  A$5Code$2220                       5Code
C:   0000050A  A$5Code$2223                       5Code
C:   0000050A  C$i2c.h$269$2$101                  5Code
C:   0000050C  A$5Code$2226                       5Code
C:   0000050C  C$i2c.h$270$2$101                  5Code
C:   0000050D  A$5Code$2227                       5Code
C:   0000050F  A$5Code$2228                       5Code
ASxxxx Linker V03.00 + NoICE + sdld,  page 44.
Hexadecimal  [32-Bits]

Area                                    Addr        Size        Decimal Bytes (Attributes)
--------------------------------        ----        ----        ------- ----- ------------
CSEG                                000000DC    000013D1 =        5073. bytes (REL,CON,CODE)

      Value  Global                              Global Defined In Module
      -----  --------------------------------   ------------------------
C:   00000510  A$5Code$2229                       5Code
C:   00000511  A$5Code$2230                       5Code
C:   00000513  A$5Code$2231                       5Code
C:   00000514  A$5Code$2232                       5Code
C:   00000516  A$5Code$2233                       5Code
C:   00000518  A$5Code$2234                       5Code
C:   0000051A  A$5Code$2235                       5Code
C:   0000051C  A$5Code$2236                       5Code
C:   0000051E  A$5Code$2237                       5Code
C:   00000521  A$5Code$2238                       5Code
C:   00000523  A$5Code$2239                       5Code
C:   00000525  A$5Code$2240                       5Code
C:   00000527  A$5Code$2241                       5Code
C:   00000529  A$5Code$2242                       5Code
C:   0000052B  A$5Code$2243                       5Code
C:   0000052D  A$5Code$2244                       5Code
C:   0000052F  A$5Code$2245                       5Code
C:   00000531  A$5Code$2246                       5Code
C:   00000532  A$5Code$2247                       5Code
C:   00000535  A$5Code$2250                       5Code
C:   00000535  C$i2c.h$267$1$100                  5Code
C:   00000536  A$5Code$2251                       5Code
C:   00000538  A$5Code$2255                       5Code
C:   00000538  C$i2c.h$272$1$100                  5Code
C:   0000053A  A$5Code$2258                       5Code
C:   0000053A  C$i2c.h$273$1$100                  5Code
C:   0000053C  A$5Code$2259                       5Code
C:   0000053E  A$5Code$2260                       5Code
C:   0000053F  A$5Code$2261                       5Code
C:   00000542  A$5Code$2262                       5Code
C:   00000543  A$5Code$2264                       5Code
C:   00000544  A$5Code$2265                       5Code
C:   00000546  A$5Code$2266                       5Code
C:   00000547  A$5Code$2267                       5Code
C:   00000548  A$5Code$2268                       5Code
C:   0000054A  A$5Code$2269                       5Code
C:   0000054B  A$5Code$2270                       5Code
C:   0000054D  A$5Code$2271                       5Code
C:   0000054F  A$5Code$2272                       5Code
C:   00000551  A$5Code$2273                       5Code
C:   00000553  A$5Code$2274                       5Code
C:   00000556  A$5Code$2275                       5Code
C:   00000558  A$5Code$2276                       5Code
C:   0000055A  A$5Code$2277                       5Code
C:   0000055C  A$5Code$2278                       5Code
C:   0000055E  A$5Code$2279                       5Code
C:   00000560  A$5Code$2280                       5Code
C:   00000562  A$5Code$2281                       5Code
C:   00000564  A$5Code$2282                       5Code
C:   00000565  A$5Code$2283                       5Code
C:   00000568  A$5Code$2286                       5Code
ASxxxx Linker V03.00 + NoICE + sdld,  page 45.
Hexadecimal  [32-Bits]

Area                                    Addr        Size        Decimal Bytes (Attributes)
--------------------------------        ----        ----        ------- ----- ------------
CSEG                                000000DC    000013D1 =        5073. bytes (REL,CON,CODE)

      Value  Global                              Global Defined In Module
      -----  --------------------------------   ------------------------
C:   00000568  C$i2c.h$274$1$100                  5Code
C:   00000568  XG$i2c_read_data$0$0               5Code
C:   00000569  A$5Code$2301                       5Code
C:   00000569  C$i2c.h$283$1$100                  5Code
C:   00000569  C$i2c.h$287$1$103                  5Code
C:   00000569  G$Accel_Init$0$0                   5Code
C:   00000569  _Accel_Init                        5Code
C:   0000056C  A$5Code$2304                       5Code
C:   0000056C  C$i2c.h$289$1$103                  5Code
C:   0000056F  A$5Code$2305                       5Code
C:   00000572  A$5Code$2306                       5Code
C:   00000575  A$5Code$2307                       5Code
C:   00000578  A$5Code$2308                       5Code
C:   0000057B  A$5Code$2309                       5Code
C:   0000057E  A$5Code$2310                       5Code
C:   00000581  A$5Code$2313                       5Code
C:   00000581  C$i2c.h$290$1$103                  5Code
C:   00000584  A$5Code$2316                       5Code
C:   00000584  C$i2c.h$292$1$103                  5Code
C:   00000587  A$5Code$2317                       5Code
C:   0000058A  A$5Code$2318                       5Code
C:   0000058D  A$5Code$2319                       5Code
C:   00000590  A$5Code$2320                       5Code
C:   00000593  A$5Code$2321                       5Code
C:   00000596  A$5Code$2322                       5Code
C:   00000599  A$5Code$2325                       5Code
C:   00000599  C$i2c.h$293$1$103                  5Code
C:   0000059C  A$5Code$2328                       5Code
C:   0000059C  C$i2c.h$294$1$103                  5Code
C:   0000059F  A$5Code$2329                       5Code
C:   000005A2  A$5Code$2330                       5Code
C:   000005A5  A$5Code$2331                       5Code
C:   000005A8  A$5Code$2332                       5Code
C:   000005AB  A$5Code$2333                       5Code
C:   000005AE  A$5Code$2334                       5Code
C:   000005B1  A$5Code$2337                       5Code
C:   000005B1  C$i2c.h$298$1$103                  5Code
C:   000005B1  XG$Accel_Init$0$0                  5Code
C:   000005B2  A$5Code$2356                       5Code
C:   000005B2  C$5Code.c$53$1$103                 5Code
C:   000005B2  C$5Code.c$61$1$115                 5Code
C:   000005B2  G$main$0$0                         5Code
C:   000005B2  _main                              5Code
C:   000005B5  A$5Code$2359                       5Code
C:   000005B5  C$5Code.c$62$1$115                 5Code
C:   000005B8  A$5Code$2360                       5Code
C:   000005BB  A$5Code$2363                       5Code
C:   000005BB  C$5Code.c$63$1$115                 5Code
C:   000005BE  A$5Code$2366                       5Code
C:   000005BE  C$5Code.c$64$1$115                 5Code
C:   000005C1  A$5Code$2369                       5Code
ASxxxx Linker V03.00 + NoICE + sdld,  page 46.
Hexadecimal  [32-Bits]

Area                                    Addr        Size        Decimal Bytes (Attributes)
--------------------------------        ----        ----        ------- ----- ------------
CSEG                                000000DC    000013D1 =        5073. bytes (REL,CON,CODE)

      Value  Global                              Global Defined In Module
      -----  --------------------------------   ------------------------
C:   000005C1  C$5Code.c$65$1$115                 5Code
C:   000005C4  A$5Code$2372                       5Code
C:   000005C4  C$5Code.c$66$1$115                 5Code
C:   000005C7  A$5Code$2375                       5Code
C:   000005C7  C$5Code.c$67$1$115                 5Code
C:   000005CA  A$5Code$2378                       5Code
C:   000005CA  C$5Code.c$68$1$115                 5Code
C:   000005CD  A$5Code$2381                       5Code
C:   000005CD  C$5Code.c$71$1$115                 5Code
C:   000005CF  A$5Code$2382                       5Code
C:   000005D1  A$5Code$2383                       5Code
C:   000005D3  A$5Code$2384                       5Code
C:   000005D5  A$5Code$2385                       5Code
C:   000005D7  A$5Code$2386                       5Code
C:   000005D9  A$5Code$2387                       5Code
C:   000005DC  A$5Code$2388                       5Code
C:   000005DE  A$5Code$2389                       5Code
C:   000005E0  A$5Code$2390                       5Code
C:   000005E2  A$5Code$2393                       5Code
C:   000005E2  C$5Code.c$72$1$115                 5Code
C:   000005E4  A$5Code$2394                       5Code
C:   000005E6  A$5Code$2395                       5Code
C:   000005E8  A$5Code$2396                       5Code
C:   000005EA  A$5Code$2397                       5Code
C:   000005EC  A$5Code$2398                       5Code
C:   000005EE  A$5Code$2399                       5Code
C:   000005F1  A$5Code$2400                       5Code
C:   000005F3  A$5Code$2401                       5Code
C:   000005F5  A$5Code$2402                       5Code
C:   000005F7  A$5Code$2405                       5Code
C:   000005F7  C$5Code.c$74$1$115                 5Code
C:   000005FA  A$5Code$2408                       5Code
C:   000005FA  C$5Code.c$76$1$115                 5Code
C:   000005FC  A$5Code$2409                       5Code
C:   000005FE  A$5Code$2410                       5Code
C:   00000600  A$5Code$2411                       5Code
C:   00000602  A$5Code$2412                       5Code
C:   00000604  A$5Code$2413                       5Code
C:   00000606  A$5Code$2414                       5Code
C:   00000608  A$5Code$2415                       5Code
C:   0000060A  A$5Code$2416                       5Code
C:   0000060C  A$5Code$2417                       5Code
C:   0000060E  A$5Code$2418                       5Code
C:   00000611  A$5Code$2419                       5Code
C:   00000613  A$5Code$2420                       5Code
C:   00000615  A$5Code$2421                       5Code
C:   00000617  A$5Code$2424                       5Code
C:   00000617  C$5Code.c$128$1$115                5Code
C:   00000617  XG$main$0$0                        5Code
C:   00000618  A$5Code$2437                       5Code
C:   00000618  C$5Code.c$130$1$115                5Code
ASxxxx Linker V03.00 + NoICE + sdld,  page 47.
Hexadecimal  [32-Bits]

Area                                    Addr        Size        Decimal Bytes (Attributes)
--------------------------------        ----        ----        ------- ----- ------------
CSEG                                000000DC    000013D1 =        5073. bytes (REL,CON,CODE)

      Value  Global                              Global Defined In Module
      -----  --------------------------------   ------------------------
C:   00000618  C$5Code.c$132$1$117                5Code
C:   00000618  G$ReadBattery$0$0                  5Code
C:   00000618  _ReadBattery                       5Code
C:   0000061A  A$5Code$2438                       5Code
C:   0000061C  A$5Code$2439                       5Code
C:   0000061D  A$5Code$2440                       5Code
C:   0000061F  A$5Code$2443                       5Code
C:   0000061F  C$5Code.c$133$1$117                5Code
C:   00000622  A$5Code$2447                       5Code
C:   00000622  C$5Code.c$134$1$117                5Code
C:   00000624  A$5Code$2448                       5Code
C:   00000627  A$5Code$2451                       5Code
C:   00000627  C$5Code.c$135$1$117                5Code
C:   0000062A  A$5Code$2454                       5Code
C:   0000062A  C$5Code.c$136$1$117                5Code
C:   0000062A  XG$ReadBattery$0$0                 5Code
C:   0000062B  A$5Code$2467                       5Code
C:   0000062B  C$5Code.c$141$1$117                5Code
C:   0000062B  C$5Code.c$143$1$118                5Code
C:   0000062B  G$SteeringServo$0$0                5Code
C:   0000062B  _SteeringServo                     5Code
C:   0000062E  A$5Code$2468                       5Code
C:   00000631  A$5Code$2469                       5Code
C:   00000634  A$5Code$2470                       5Code
C:   00000637  A$5Code$2471                       5Code
C:   0000063A  A$5Code$2472                       5Code
C:   0000063C  A$5Code$2473                       5Code
C:   0000063E  A$5Code$2474                       5Code
C:   00000640  A$5Code$2475                       5Code
C:   00000641  A$5Code$2476                       5Code
C:   00000642  A$5Code$2477                       5Code
C:   00000644  A$5Code$2478                       5Code
C:   00000646  A$5Code$2479                       5Code
C:   00000647  A$5Code$2480                       5Code
C:   00000649  A$5Code$2483                       5Code
C:   00000649  C$5Code.c$145$1$118                5Code
C:   0000064A  A$5Code$2484                       5Code
C:   0000064C  A$5Code$2485                       5Code
C:   0000064E  A$5Code$2486                       5Code
C:   00000650  A$5Code$2487                       5Code
C:   00000652  A$5Code$2488                       5Code
C:   00000654  A$5Code$2491                       5Code
C:   00000654  C$5Code.c$147$2$119                5Code
C:   00000657  A$5Code$2492                       5Code
C:   0000065A  A$5Code$2496                       5Code
C:   0000065A  C$5Code.c$150$1$118                5Code
C:   0000065B  A$5Code$2497                       5Code
C:   0000065D  A$5Code$2498                       5Code
C:   0000065F  A$5Code$2499                       5Code
C:   00000661  A$5Code$2500                       5Code
C:   00000663  A$5Code$2501                       5Code
ASxxxx Linker V03.00 + NoICE + sdld,  page 48.
Hexadecimal  [32-Bits]

Area                                    Addr        Size        Decimal Bytes (Attributes)
--------------------------------        ----        ----        ------- ----- ------------
CSEG                                000000DC    000013D1 =        5073. bytes (REL,CON,CODE)

      Value  Global                              Global Defined In Module
      -----  --------------------------------   ------------------------
C:   00000665  A$5Code$2504                       5Code
C:   00000665  C$5Code.c$152$2$120                5Code
C:   00000668  A$5Code$2505                       5Code
C:   0000066B  A$5Code$2509                       5Code
C:   0000066B  C$5Code.c$156$1$118                5Code
C:   0000066D  A$5Code$2510                       5Code
C:   0000066E  A$5Code$2511                       5Code
C:   00000670  A$5Code$2512                       5Code
C:   00000672  A$5Code$2513                       5Code
C:   00000674  A$5Code$2514                       5Code
C:   00000676  A$5Code$2515                       5Code
C:   00000678  A$5Code$2518                       5Code
C:   00000678  C$5Code.c$157$1$118                5Code
C:   00000678  XG$SteeringServo$0$0               5Code
C:   00000679  A$5Code$2531                       5Code
C:   00000679  C$5Code.c$159$1$118                5Code
C:   00000679  C$5Code.c$161$1$121                5Code
C:   00000679  G$MotorServo$0$0                   5Code
C:   00000679  _MotorServo                        5Code
C:   0000067C  A$5Code$2532                       5Code
C:   0000067F  A$5Code$2533                       5Code
C:   00000682  A$5Code$2534                       5Code
C:   00000685  A$5Code$2535                       5Code
C:   00000688  A$5Code$2536                       5Code
C:   0000068A  A$5Code$2537                       5Code
C:   0000068D  A$5Code$2538                       5Code
C:   0000068F  A$5Code$2539                       5Code
C:   00000691  A$5Code$2540                       5Code
C:   00000693  A$5Code$2541                       5Code
C:   00000695  A$5Code$2542                       5Code
C:   00000697  A$5Code$2545                       5Code
C:   00000697  C$5Code.c$162$1$121                5Code
C:   0000069A  A$5Code$2546                       5Code
C:   0000069D  A$5Code$2547                       5Code
C:   000006A0  A$5Code$2548                       5Code
C:   000006A3  A$5Code$2549                       5Code
C:   000006A6  A$5Code$2550                       5Code
C:   000006A9  A$5Code$2551                       5Code
C:   000006AC  A$5Code$2552                       5Code
C:   000006AF  A$5Code$2553                       5Code
C:   000006B1  A$5Code$2554                       5Code
C:   000006B3  A$5Code$2555                       5Code
C:   000006B4  A$5Code$2556                       5Code
C:   000006B6  A$5Code$2557                       5Code
C:   000006B8  A$5Code$2558                       5Code
C:   000006B9  A$5Code$2559                       5Code
C:   000006BB  A$5Code$2560                       5Code
C:   000006BD  A$5Code$2563                       5Code
C:   000006BD  C$5Code.c$163$1$121                5Code
C:   000006C0  A$5Code$2564                       5Code
C:   000006C3  A$5Code$2565                       5Code
ASxxxx Linker V03.00 + NoICE + sdld,  page 49.
Hexadecimal  [32-Bits]

Area                                    Addr        Size        Decimal Bytes (Attributes)
--------------------------------        ----        ----        ------- ----- ------------
CSEG                                000000DC    000013D1 =        5073. bytes (REL,CON,CODE)

      Value  Global                              Global Defined In Module
      -----  --------------------------------   ------------------------
C:   000006C6  A$5Code$2566                       5Code
C:   000006C8  A$5Code$2567                       5Code
C:   000006CA  A$5Code$2568                       5Code
C:   000006CB  A$5Code$2569                       5Code
C:   000006CD  A$5Code$2570                       5Code
C:   000006CE  A$5Code$2571                       5Code
C:   000006CF  A$5Code$2572                       5Code
C:   000006D1  A$5Code$2573                       5Code
C:   000006D2  A$5Code$2574                       5Code
C:   000006D3  A$5Code$2575                       5Code
C:   000006D5  A$5Code$2576                       5Code
C:   000006D7  A$5Code$2577                       5Code
C:   000006D8  A$5Code$2578                       5Code
C:   000006DA  A$5Code$2579                       5Code
C:   000006DC  A$5Code$2582                       5Code
C:   000006DC  C$5Code.c$164$1$121                5Code
C:   000006DF  A$5Code$2583                       5Code
C:   000006E2  A$5Code$2584                       5Code
C:   000006E5  A$5Code$2585                       5Code
C:   000006E8  A$5Code$2586                       5Code
C:   000006EB  A$5Code$2587                       5Code
C:   000006EE  A$5Code$2588                       5Code
C:   000006F1  A$5Code$2589                       5Code
C:   000006F4  A$5Code$2590                       5Code
C:   000006F6  A$5Code$2591                       5Code
C:   000006F8  A$5Code$2592                       5Code
C:   000006FB  A$5Code$2593                       5Code
C:   000006FE  A$5Code$2594                       5Code
C:   00000701  A$5Code$2595                       5Code
C:   00000704  A$5Code$2596                       5Code
C:   00000706  A$5Code$2597                       5Code
C:   00000708  A$5Code$2598                       5Code
C:   0000070B  A$5Code$2599                       5Code
C:   0000070D  A$5Code$2600                       5Code
C:   0000070F  A$5Code$2601                       5Code
C:   00000711  A$5Code$2602                       5Code
C:   00000713  A$5Code$2603                       5Code
C:   00000714  A$5Code$2604                       5Code
C:   00000715  A$5Code$2605                       5Code
C:   00000716  A$5Code$2606                       5Code
C:   00000717  A$5Code$2607                       5Code
C:   00000718  A$5Code$2608                       5Code
C:   00000719  A$5Code$2609                       5Code
C:   0000071A  A$5Code$2610                       5Code
C:   0000071C  A$5Code$2611                       5Code
C:   0000071E  A$5Code$2612                       5Code
C:   0000071F  A$5Code$2613                       5Code
C:   00000721  A$5Code$2614                       5Code
C:   00000723  A$5Code$2617                       5Code
C:   00000723  C$5Code.c$165$1$121                5Code
C:   00000724  A$5Code$2618                       5Code
ASxxxx Linker V03.00 + NoICE + sdld,  page 50.
Hexadecimal  [32-Bits]

Area                                    Addr        Size        Decimal Bytes (Attributes)
--------------------------------        ----        ----        ------- ----- ------------
CSEG                                000000DC    000013D1 =        5073. bytes (REL,CON,CODE)

      Value  Global                              Global Defined In Module
      -----  --------------------------------   ------------------------
C:   00000726  A$5Code$2619                       5Code
C:   00000728  A$5Code$2620                       5Code
C:   0000072A  A$5Code$2621                       5Code
C:   0000072C  A$5Code$2622                       5Code
C:   0000072E  A$5Code$2625                       5Code
C:   0000072E  C$5Code.c$166$1$121                5Code
C:   00000731  A$5Code$2626                       5Code
C:   00000734  A$5Code$2630                       5Code
C:   00000734  C$5Code.c$168$1$121                5Code
C:   00000735  A$5Code$2631                       5Code
C:   00000737  A$5Code$2632                       5Code
C:   00000739  A$5Code$2633                       5Code
C:   0000073B  A$5Code$2634                       5Code
C:   0000073D  A$5Code$2635                       5Code
C:   0000073F  A$5Code$2638                       5Code
C:   0000073F  C$5Code.c$169$1$121                5Code
C:   00000742  A$5Code$2639                       5Code
C:   00000745  A$5Code$2643                       5Code
C:   00000745  C$5Code.c$173$1$121                5Code
C:   00000747  A$5Code$2644                       5Code
C:   00000748  A$5Code$2645                       5Code
C:   0000074A  A$5Code$2646                       5Code
C:   0000074C  A$5Code$2647                       5Code
C:   0000074E  A$5Code$2648                       5Code
C:   00000750  A$5Code$2649                       5Code
C:   00000752  A$5Code$2652                       5Code
C:   00000752  C$5Code.c$174$1$121                5Code
C:   00000752  XG$MotorServo$0$0                  5Code
C:   00000753  A$5Code$2674                       5Code
C:   00000753  C$5Code.c$176$1$121                5Code
C:   00000753  C$5Code.c$180$1$121                5Code
C:   00000753  C$5Code.c$181$1$121                5Code
C:   00000753  G$ReadAccel$0$0                    5Code
C:   00000753  _ReadAccel                         5Code
C:   00000754  A$5Code$2675                       5Code
C:   00000755  A$5Code$2676                       5Code
C:   00000756  A$5Code$2677                       5Code
C:   00000758  A$5Code$2678                       5Code
C:   0000075A  A$5Code$2679                       5Code
C:   0000075B  A$5Code$2680                       5Code
C:   0000075C  A$5Code$2684                       5Code
C:   0000075C  C$5Code.c$184$2$124                5Code
C:   0000075F  A$5Code$2685                       5Code
C:   00000762  A$5Code$2686                       5Code
C:   00000765  A$5Code$2687                       5Code
C:   00000768  A$5Code$2688                       5Code
C:   0000076B  A$5Code$2689                       5Code
C:   0000076E  A$5Code$2690                       5Code
C:   00000770  A$5Code$2691                       5Code
C:   00000772  A$5Code$2692                       5Code
C:   00000774  A$5Code$2693                       5Code
ASxxxx Linker V03.00 + NoICE + sdld,  page 51.
Hexadecimal  [32-Bits]

Area                                    Addr        Size        Decimal Bytes (Attributes)
--------------------------------        ----        ----        ------- ----- ------------
CSEG                                000000DC    000013D1 =        5073. bytes (REL,CON,CODE)

      Value  Global                              Global Defined In Module
      -----  --------------------------------   ------------------------
C:   00000776  A$5Code$2694                       5Code
C:   00000779  A$5Code$2695                       5Code
C:   0000077B  A$5Code$2696                       5Code
C:   0000077D  A$5Code$2697                       5Code
C:   0000077F  A$5Code$2698                       5Code
C:   00000781  A$5Code$2701                       5Code
C:   00000781  C$5Code.c$186$2$124                5Code
C:   00000782  A$5Code$2702                       5Code
C:   00000784  A$5Code$2703                       5Code
C:   00000786  A$5Code$2707                       5Code
C:   00000786  C$5Code.c$187$2$124                5Code
C:   00000787  A$5Code$2708                       5Code
C:   00000789  A$5Code$2709                       5Code
C:   0000078B  A$5Code$2710                       5Code
C:   0000078D  A$5Code$2711                       5Code
C:   0000078F  A$5Code$2712                       5Code
C:   00000791  A$5Code$2716                       5Code
C:   00000791  C$5Code.c$189$2$124                5Code
C:   00000793  A$5Code$2717                       5Code
C:   00000795  A$5Code$2718                       5Code
C:   00000796  A$5Code$2719                       5Code
C:   00000799  A$5Code$2720                       5Code
C:   0000079B  A$5Code$2724                       5Code
C:   0000079B  C$5Code.c$191$3$125                5Code
C:   0000079E  A$5Code$2725                       5Code
C:   000007A1  A$5Code$2726                       5Code
C:   000007A4  A$5Code$2727                       5Code
C:   000007A7  A$5Code$2728                       5Code
C:   000007AA  A$5Code$2729                       5Code
C:   000007AD  A$5Code$2730                       5Code
C:   000007AF  A$5Code$2731                       5Code
C:   000007B1  A$5Code$2732                       5Code
C:   000007B3  A$5Code$2733                       5Code
C:   000007B5  A$5Code$2734                       5Code
C:   000007B8  A$5Code$2735                       5Code
C:   000007BA  A$5Code$2736                       5Code
C:   000007BC  A$5Code$2737                       5Code
C:   000007BE  A$5Code$2738                       5Code
C:   000007C0  A$5Code$2741                       5Code
C:   000007C0  C$5Code.c$192$3$125                5Code
C:   000007C1  A$5Code$2742                       5Code
C:   000007C3  A$5Code$2743                       5Code
C:   000007C5  A$5Code$2747                       5Code
C:   000007C5  C$5Code.c$193$3$125                5Code
C:   000007C6  A$5Code$2748                       5Code
C:   000007C8  A$5Code$2749                       5Code
C:   000007CA  A$5Code$2750                       5Code
C:   000007CC  A$5Code$2751                       5Code
C:   000007CE  A$5Code$2752                       5Code
C:   000007D0  A$5Code$2753                       5Code
C:   000007D2  A$5Code$2757                       5Code
ASxxxx Linker V03.00 + NoICE + sdld,  page 52.
Hexadecimal  [32-Bits]

Area                                    Addr        Size        Decimal Bytes (Attributes)
--------------------------------        ----        ----        ------- ----- ------------
CSEG                                000000DC    000013D1 =        5073. bytes (REL,CON,CODE)

      Value  Global                              Global Defined In Module
      -----  --------------------------------   ------------------------
C:   000007D2  C$5Code.c$196$2$124                5Code
C:   000007D5  A$5Code$2758                       5Code
C:   000007D8  A$5Code$2759                       5Code
C:   000007DB  A$5Code$2760                       5Code
C:   000007DE  A$5Code$2761                       5Code
C:   000007E1  A$5Code$2762                       5Code
C:   000007E4  A$5Code$2763                       5Code
C:   000007E6  A$5Code$2764                       5Code
C:   000007E8  A$5Code$2765                       5Code
C:   000007EA  A$5Code$2766                       5Code
C:   000007EC  A$5Code$2767                       5Code
C:   000007EF  A$5Code$2768                       5Code
C:   000007F1  A$5Code$2769                       5Code
C:   000007F3  A$5Code$2770                       5Code
C:   000007F5  A$5Code$2771                       5Code
C:   000007F7  A$5Code$2774                       5Code
C:   000007F7  C$5Code.c$198$2$124                5Code
C:   000007F9  A$5Code$2775                       5Code
C:   000007FB  A$5Code$2776                       5Code
C:   000007FC  A$5Code$2777                       5Code
C:   000007FD  A$5Code$2778                       5Code
C:   000007FE  A$5Code$2779                       5Code
C:   000007FF  A$5Code$2780                       5Code
C:   00000801  A$5Code$2781                       5Code
C:   00000802  A$5Code$2782                       5Code
C:   00000803  A$5Code$2783                       5Code
C:   00000805  A$5Code$2784                       5Code
C:   00000806  A$5Code$2785                       5Code
C:   00000807  A$5Code$2786                       5Code
C:   00000808  A$5Code$2787                       5Code
C:   0000080B  A$5Code$2788                       5Code
C:   0000080D  A$5Code$2790                       5Code
C:   0000080E  A$5Code$2791                       5Code
C:   0000080F  A$5Code$2792                       5Code
C:   00000810  A$5Code$2793                       5Code
C:   00000811  A$5Code$2794                       5Code
C:   00000812  A$5Code$2795                       5Code
C:   00000813  A$5Code$2796                       5Code
C:   00000814  A$5Code$2799                       5Code
C:   00000814  C$5Code.c$199$2$124                5Code
C:   00000816  A$5Code$2800                       5Code
C:   00000818  A$5Code$2801                       5Code
C:   00000819  A$5Code$2802                       5Code
C:   0000081A  A$5Code$2803                       5Code
C:   0000081B  A$5Code$2804                       5Code
C:   0000081C  A$5Code$2805                       5Code
C:   0000081E  A$5Code$2806                       5Code
C:   0000081F  A$5Code$2807                       5Code
C:   00000820  A$5Code$2808                       5Code
C:   00000822  A$5Code$2809                       5Code
C:   00000823  A$5Code$2810                       5Code
ASxxxx Linker V03.00 + NoICE + sdld,  page 53.
Hexadecimal  [32-Bits]

Area                                    Addr        Size        Decimal Bytes (Attributes)
--------------------------------        ----        ----        ------- ----- ------------
CSEG                                000000DC    000013D1 =        5073. bytes (REL,CON,CODE)

      Value  Global                              Global Defined In Module
      -----  --------------------------------   ------------------------
C:   00000824  A$5Code$2811                       5Code
C:   00000825  A$5Code$2812                       5Code
C:   00000828  A$5Code$2813                       5Code
C:   0000082A  A$5Code$2815                       5Code
C:   0000082B  A$5Code$2816                       5Code
C:   0000082C  A$5Code$2817                       5Code
C:   0000082E  A$5Code$2818                       5Code
C:   00000830  A$5Code$2819                       5Code
C:   00000831  A$5Code$2820                       5Code
C:   00000833  A$5Code$2821                       5Code
C:   00000835  A$5Code$2824                       5Code
C:   00000835  C$5Code.c$182$1$123                5Code
C:   00000836  A$5Code$2825                       5Code
C:   00000839  A$5Code$2826                       5Code
C:   0000083A  A$5Code$2828                       5Code
C:   0000083B  A$5Code$2829                       5Code
C:   0000083C  A$5Code$2830                       5Code
C:   0000083E  A$5Code$2831                       5Code
C:   0000083F  A$5Code$2832                       5Code
C:   00000841  A$5Code$2833                       5Code
C:   00000843  A$5Code$2834                       5Code
C:   00000845  A$5Code$2835                       5Code
C:   00000848  A$5Code$2839                       5Code
C:   00000848  C$5Code.c$202$1$123                5Code
C:   0000084B  A$5Code$2840                       5Code
C:   0000084E  A$5Code$2841                       5Code
C:   00000850  A$5Code$2842                       5Code
C:   00000852  A$5Code$2843                       5Code
C:   00000855  A$5Code$2844                       5Code
C:   00000857  A$5Code$2845                       5Code
C:   00000859  A$5Code$2848                       5Code
C:   00000859  C$5Code.c$203$1$123                5Code
C:   0000085C  A$5Code$2849                       5Code
C:   0000085F  A$5Code$2850                       5Code
C:   00000862  A$5Code$2851                       5Code
C:   00000865  A$5Code$2852                       5Code
C:   00000867  A$5Code$2853                       5Code
C:   00000869  A$5Code$2854                       5Code
C:   0000086C  A$5Code$2855                       5Code
C:   0000086F  A$5Code$2856                       5Code
C:   00000872  A$5Code$2857                       5Code
C:   00000874  A$5Code$2858                       5Code
C:   00000876  A$5Code$2861                       5Code
C:   00000876  C$5Code.c$206$1$123                5Code
C:   00000877  A$5Code$2862                       5Code
C:   00000878  A$5Code$2863                       5Code
C:   0000087A  A$5Code$2864                       5Code
C:   0000087C  A$5Code$2865                       5Code
C:   0000087D  A$5Code$2866                       5Code
C:   0000087F  A$5Code$2867                       5Code
C:   00000881  A$5Code$2870                       5Code
ASxxxx Linker V03.00 + NoICE + sdld,  page 54.
Hexadecimal  [32-Bits]

Area                                    Addr        Size        Decimal Bytes (Attributes)
--------------------------------        ----        ----        ------- ----- ------------
CSEG                                000000DC    000013D1 =        5073. bytes (REL,CON,CODE)

      Value  Global                              Global Defined In Module
      -----  --------------------------------   ------------------------
C:   00000881  C$5Code.c$207$1$123                5Code
C:   00000883  A$5Code$2871                       5Code
C:   00000884  A$5Code$2872                       5Code
C:   00000886  A$5Code$2873                       5Code
C:   00000888  A$5Code$2874                       5Code
C:   0000088A  A$5Code$2875                       5Code
C:   0000088C  A$5Code$2876                       5Code
C:   0000088E  A$5Code$2879                       5Code
C:   0000088E  C$5Code.c$208$1$123                5Code
C:   0000088E  XG$ReadAccel$0$0                   5Code
C:   0000088F  A$5Code$2895                       5Code
C:   0000088F  C$5Code.c$210$1$123                5Code
C:   0000088F  C$5Code.c$213$1$127                5Code
C:   0000088F  G$getIndividualPress$0$0           5Code
C:   0000088F  _getIndividualPress                5Code
C:   00000892  A$5Code$2896                       5Code
C:   00000894  A$5Code$2899                       5Code
C:   00000894  C$5Code.c$215$1$127                5Code
C:   00000895  A$5Code$2900                       5Code
C:   00000897  A$5Code$2901                       5Code
C:   00000899  A$5Code$2905                       5Code
C:   00000899  C$5Code.c$216$1$127                5Code
C:   0000089A  A$5Code$2906                       5Code
C:   0000089C  A$5Code$2907                       5Code
C:   0000089E  A$5Code$2908                       5Code
C:   000008A0  A$5Code$2909                       5Code
C:   000008A2  A$5Code$2910                       5Code
C:   000008A4  A$5Code$2914                       5Code
C:   000008A4  C$5Code.c$218$1$127                5Code
C:   000008A7  A$5Code$2917                       5Code
C:   000008A7  C$5Code.c$220$2$128                5Code
C:   000008AA  A$5Code$2918                       5Code
C:   000008AC  A$5Code$2921                       5Code
C:   000008AC  C$5Code.c$221$2$128                5Code
C:   000008AD  A$5Code$2922                       5Code
C:   000008AF  A$5Code$2923                       5Code
C:   000008B1  A$5Code$2927                       5Code
C:   000008B1  C$5Code.c$222$2$128                5Code
C:   000008B2  A$5Code$2928                       5Code
C:   000008B4  A$5Code$2929                       5Code
C:   000008B6  A$5Code$2930                       5Code
C:   000008B8  A$5Code$2931                       5Code
C:   000008BA  A$5Code$2932                       5Code
C:   000008BC  A$5Code$2933                       5Code
C:   000008BE  A$5Code$2937                       5Code
C:   000008BE  C$5Code.c$225$1$127                5Code
C:   000008C0  A$5Code$2941                       5Code
C:   000008C0  C$5Code.c$227$1$127                5Code
C:   000008C3  A$5Code$2942                       5Code
C:   000008C5  A$5Code$2946                       5Code
C:   000008C5  C$5Code.c$229$2$129                5Code
ASxxxx Linker V03.00 + NoICE + sdld,  page 55.
Hexadecimal  [32-Bits]

Area                                    Addr        Size        Decimal Bytes (Attributes)
--------------------------------        ----        ----        ------- ----- ------------
CSEG                                000000DC    000013D1 =        5073. bytes (REL,CON,CODE)

      Value  Global                              Global Defined In Module
      -----  --------------------------------   ------------------------
C:   000008C7  A$5Code$2947                       5Code
C:   000008CA  A$5Code$2948                       5Code
C:   000008CC  A$5Code$2949                       5Code
C:   000008CE  A$5Code$2952                       5Code
C:   000008CE  C$5Code.c$230$2$129                5Code
C:   000008CF  A$5Code$2953                       5Code
C:   000008D1  A$5Code$2954                       5Code
C:   000008D3  A$5Code$2958                       5Code
C:   000008D3  C$5Code.c$231$2$129                5Code
C:   000008D4  A$5Code$2959                       5Code
C:   000008D6  A$5Code$2960                       5Code
C:   000008D8  A$5Code$2961                       5Code
C:   000008DA  A$5Code$2962                       5Code
C:   000008DC  A$5Code$2963                       5Code
C:   000008DE  A$5Code$2964                       5Code
C:   000008E0  A$5Code$2968                       5Code
C:   000008E0  C$5Code.c$234$1$127                5Code
C:   000008E2  A$5Code$2971                       5Code
C:   000008E2  C$5Code.c$235$1$127                5Code
C:   000008E2  XG$getIndividualPress$0$0          5Code
C:   000008E3  A$5Code$2992                       5Code
C:   000008E3  C$5Code.c$238$1$127                5Code
C:   000008E3  C$5Code.c$245$3$134                5Code
C:   000008E3  C$5Code.c$248$2$131                5Code
C:   000008E3  G$getDesiredGains$0$0              5Code
C:   000008E3  _getDesiredGains                   5Code
C:   000008E6  A$5Code$2995                       5Code
C:   000008E6  C$5Code.c$249$2$131                5Code
C:   000008E8  A$5Code$2996                       5Code
C:   000008EA  A$5Code$2997                       5Code
C:   000008EC  A$5Code$2998                       5Code
C:   000008EE  A$5Code$2999                       5Code
C:   000008F0  A$5Code$3000                       5Code
C:   000008F2  A$5Code$3001                       5Code
C:   000008F5  A$5Code$3002                       5Code
C:   000008F7  A$5Code$3003                       5Code
C:   000008F9  A$5Code$3004                       5Code
C:   000008FB  A$5Code$3007                       5Code
C:   000008FB  C$5Code.c$250$2$131                5Code
C:   000008FD  A$5Code$3008                       5Code
C:   000008FF  A$5Code$3009                       5Code
C:   00000901  A$5Code$3010                       5Code
C:   00000903  A$5Code$3011                       5Code
C:   00000905  A$5Code$3012                       5Code
C:   00000907  A$5Code$3013                       5Code
C:   0000090A  A$5Code$3014                       5Code
C:   0000090C  A$5Code$3015                       5Code
C:   0000090E  A$5Code$3016                       5Code
C:   00000910  A$5Code$3019                       5Code
C:   00000910  C$5Code.c$251$2$131                5Code
C:   00000912  A$5Code$3020                       5Code
ASxxxx Linker V03.00 + NoICE + sdld,  page 56.
Hexadecimal  [32-Bits]

Area                                    Addr        Size        Decimal Bytes (Attributes)
--------------------------------        ----        ----        ------- ----- ------------
CSEG                                000000DC    000013D1 =        5073. bytes (REL,CON,CODE)

      Value  Global                              Global Defined In Module
      -----  --------------------------------   ------------------------
C:   00000914  A$5Code$3021                       5Code
C:   00000916  A$5Code$3022                       5Code
C:   00000918  A$5Code$3023                       5Code
C:   0000091A  A$5Code$3024                       5Code
C:   0000091C  A$5Code$3025                       5Code
C:   0000091F  A$5Code$3026                       5Code
C:   00000921  A$5Code$3027                       5Code
C:   00000923  A$5Code$3028                       5Code
C:   00000925  A$5Code$3031                       5Code
C:   00000925  C$5Code.c$252$2$131                5Code
C:   00000927  A$5Code$3032                       5Code
C:   00000929  A$5Code$3033                       5Code
C:   0000092B  A$5Code$3034                       5Code
C:   0000092D  A$5Code$3035                       5Code
C:   0000092F  A$5Code$3036                       5Code
C:   00000931  A$5Code$3037                       5Code
C:   00000934  A$5Code$3038                       5Code
C:   00000936  A$5Code$3039                       5Code
C:   00000938  A$5Code$3040                       5Code
C:   0000093A  A$5Code$3046                       5Code
C:   0000093A  C$5Code.c$254$2$131                5Code
C:   0000093A  C$5Code.c$256$3$132                5Code
C:   0000093D  A$5Code$3047                       5Code
C:   0000093F  A$5Code$3050                       5Code
C:   0000093F  C$5Code.c$258$3$132                5Code
C:   00000942  A$5Code$3051                       5Code
C:   00000944  A$5Code$3053                       5Code
C:   00000947  A$5Code$3059                       5Code
C:   00000947  C$5Code.c$260$2$131                5Code
C:   00000947  C$5Code.c$264$2$131                5Code
C:   0000094A  A$5Code$3060                       5Code
C:   0000094C  A$5Code$3062                       5Code
C:   0000094F  A$5Code$3066                       5Code
C:   0000094F  C$5Code.c$266$3$134                5Code
C:   00000952  A$5Code$3069                       5Code
C:   00000952  C$5Code.c$267$3$134                5Code
C:   00000954  A$5Code$3070                       5Code
C:   00000956  A$5Code$3071                       5Code
C:   00000958  A$5Code$3072                       5Code
C:   0000095A  A$5Code$3073                       5Code
C:   0000095C  A$5Code$3074                       5Code
C:   0000095E  A$5Code$3075                       5Code
C:   00000961  A$5Code$3076                       5Code
C:   00000963  A$5Code$3077                       5Code
C:   00000965  A$5Code$3078                       5Code
C:   00000967  A$5Code$3081                       5Code
C:   00000967  C$5Code.c$268$3$134                5Code
C:   00000969  A$5Code$3082                       5Code
C:   0000096B  A$5Code$3083                       5Code
C:   0000096D  A$5Code$3084                       5Code
C:   0000096F  A$5Code$3085                       5Code
ASxxxx Linker V03.00 + NoICE + sdld,  page 57.
Hexadecimal  [32-Bits]

Area                                    Addr        Size        Decimal Bytes (Attributes)
--------------------------------        ----        ----        ------- ----- ------------
CSEG                                000000DC    000013D1 =        5073. bytes (REL,CON,CODE)

      Value  Global                              Global Defined In Module
      -----  --------------------------------   ------------------------
C:   00000971  A$5Code$3086                       5Code
C:   00000973  A$5Code$3087                       5Code
C:   00000976  A$5Code$3088                       5Code
C:   00000978  A$5Code$3089                       5Code
C:   0000097A  A$5Code$3090                       5Code
C:   0000097C  A$5Code$3093                       5Code
C:   0000097C  C$5Code.c$269$3$134                5Code
C:   0000097E  A$5Code$3094                       5Code
C:   00000980  A$5Code$3095                       5Code
C:   00000982  A$5Code$3096                       5Code
C:   00000984  A$5Code$3097                       5Code
C:   00000986  A$5Code$3098                       5Code
C:   00000988  A$5Code$3099                       5Code
C:   0000098B  A$5Code$3100                       5Code
C:   0000098D  A$5Code$3101                       5Code
C:   0000098F  A$5Code$3102                       5Code
C:   00000991  A$5Code$3108                       5Code
C:   00000991  C$5Code.c$271$3$134                5Code
C:   00000991  C$5Code.c$273$4$135                5Code
C:   00000994  A$5Code$3109                       5Code
C:   00000996  A$5Code$3112                       5Code
C:   00000996  C$5Code.c$275$4$135                5Code
C:   00000999  A$5Code$3113                       5Code
C:   0000099B  A$5Code$3115                       5Code
C:   0000099E  A$5Code$3116                       5Code
C:   000009A0  A$5Code$3118                       5Code
C:   000009A3  A$5Code$3119                       5Code
C:   000009A5  A$5Code$3121                       5Code
C:   000009A8  A$5Code$3127                       5Code
C:   000009A8  C$5Code.c$277$3$134                5Code
C:   000009A8  C$5Code.c$281$3$134                5Code
C:   000009AB  A$5Code$3130                       5Code
C:   000009AB  C$5Code.c$283$4$137                5Code
C:   000009AD  A$5Code$3131                       5Code
C:   000009AF  A$5Code$3132                       5Code
C:   000009B2  A$5Code$3136                       5Code
C:   000009B2  C$5Code.c$285$3$134                5Code
C:   000009B5  A$5Code$3139                       5Code
C:   000009B5  C$5Code.c$287$4$138                5Code
C:   000009B7  A$5Code$3140                       5Code
C:   000009B9  A$5Code$3141                       5Code
C:   000009BC  A$5Code$3145                       5Code
C:   000009BC  C$5Code.c$289$3$134                5Code
C:   000009BF  A$5Code$3148                       5Code
C:   000009BF  C$5Code.c$291$4$139                5Code
C:   000009C1  A$5Code$3149                       5Code
C:   000009C3  A$5Code$3150                       5Code
C:   000009C6  A$5Code$3154                       5Code
C:   000009C6  C$5Code.c$295$4$140                5Code
C:   000009C8  A$5Code$3155                       5Code
C:   000009CA  A$5Code$3156                       5Code
ASxxxx Linker V03.00 + NoICE + sdld,  page 58.
Hexadecimal  [32-Bits]

Area                                    Addr        Size        Decimal Bytes (Attributes)
--------------------------------        ----        ----        ------- ----- ------------
CSEG                                000000DC    000013D1 =        5073. bytes (REL,CON,CODE)

      Value  Global                              Global Defined In Module
      -----  --------------------------------   ------------------------
C:   000009CD  A$5Code$3162                       5Code
C:   000009CD  C$5Code.c$300$3$141                5Code
C:   000009CD  C$5Code.c$303$4$142                5Code
C:   000009D0  A$5Code$3165                       5Code
C:   000009D0  C$5Code.c$304$4$142                5Code
C:   000009D2  A$5Code$3166                       5Code
C:   000009D4  A$5Code$3167                       5Code
C:   000009D6  A$5Code$3168                       5Code
C:   000009D8  A$5Code$3169                       5Code
C:   000009DA  A$5Code$3170                       5Code
C:   000009DC  A$5Code$3171                       5Code
C:   000009DF  A$5Code$3172                       5Code
C:   000009E1  A$5Code$3173                       5Code
C:   000009E3  A$5Code$3174                       5Code
C:   000009E5  A$5Code$3177                       5Code
C:   000009E6  A$5Code$3178                       5Code
C:   000009E8  A$5Code$3179                       5Code
C:   000009EA  A$5Code$3183                       5Code
C:   000009EA  C$5Code.c$308$5$143                5Code
C:   000009ED  A$5Code$3184                       5Code
C:   000009EF  A$5Code$3187                       5Code
C:   000009EF  C$5Code.c$310$5$143                5Code
C:   000009F2  A$5Code$3188                       5Code
C:   000009F4  A$5Code$3190                       5Code
C:   000009F7  A$5Code$3191                       5Code
C:   000009F9  A$5Code$3195                       5Code
C:   000009F9  C$5Code.c$312$6$144                5Code
C:   000009FB  A$5Code$3196                       5Code
C:   000009FD  A$5Code$3197                       5Code
C:   000009FE  A$5Code$3198                       5Code
C:   00000A00  A$5Code$3199                       5Code
C:   00000A02  A$5Code$3203                       5Code
C:   00000A02  C$5Code.c$314$5$143                5Code
C:   00000A05  A$5Code$3204                       5Code
C:   00000A07  A$5Code$3208                       5Code
C:   00000A07  C$5Code.c$318$5$143                5Code
C:   00000A0A  A$5Code$3211                       5Code
C:   00000A0A  C$5Code.c$320$6$146                5Code
C:   00000A0C  A$5Code$3212                       5Code
C:   00000A0E  A$5Code$3213                       5Code
C:   00000A11  A$5Code$3214                       5Code
C:   00000A13  A$5Code$3218                       5Code
C:   00000A13  C$5Code.c$321$6$146                5Code
C:   00000A15  A$5Code$3222                       5Code
C:   00000A15  C$5Code.c$324$5$143                5Code
C:   00000A17  A$5Code$3223                       5Code
C:   00000A19  A$5Code$3224                       5Code
C:   00000A1A  A$5Code$3225                       5Code
C:   00000A1C  A$5Code$3226                       5Code
C:   00000A1E  A$5Code$3227                       5Code
C:   00000A20  A$5Code$3228                       5Code
ASxxxx Linker V03.00 + NoICE + sdld,  page 59.
Hexadecimal  [32-Bits]

Area                                    Addr        Size        Decimal Bytes (Attributes)
--------------------------------        ----        ----        ------- ----- ------------
CSEG                                000000DC    000013D1 =        5073. bytes (REL,CON,CODE)

      Value  Global                              Global Defined In Module
      -----  --------------------------------   ------------------------
C:   00000A22  A$5Code$3229                       5Code
C:   00000A24  A$5Code$3230                       5Code
C:   00000A26  A$5Code$3231                       5Code
C:   00000A28  A$5Code$3232                       5Code
C:   00000A2A  A$5Code$3233                       5Code
C:   00000A2C  A$5Code$3234                       5Code
C:   00000A2E  A$5Code$3235                       5Code
C:   00000A31  A$5Code$3236                       5Code
C:   00000A33  A$5Code$3237                       5Code
C:   00000A35  A$5Code$3238                       5Code
C:   00000A37  A$5Code$3242                       5Code
C:   00000A37  C$5Code.c$306$4$142                5Code
C:   00000A39  A$5Code$3243                       5Code
C:   00000A3A  A$5Code$3244                       5Code
C:   00000A3D  A$5Code$3245                       5Code
C:   00000A3F  A$5Code$3247                       5Code
C:   00000A40  A$5Code$3248                       5Code
C:   00000A42  A$5Code$3249                       5Code
C:   00000A44  A$5Code$3250                       5Code
C:   00000A46  A$5Code$3251                       5Code
C:   00000A48  A$5Code$3252                       5Code
C:   00000A4A  A$5Code$3256                       5Code
C:   00000A4A  C$5Code.c$327$4$142                5Code
C:   00000A4D  A$5Code$3257                       5Code
C:   00000A50  A$5Code$3258                       5Code
C:   00000A53  A$5Code$3259                       5Code
C:   00000A55  A$5Code$3260                       5Code
C:   00000A57  A$5Code$3263                       5Code
C:   00000A57  C$5Code.c$328$1$130                5Code
C:   00000A59  A$5Code$3264                       5Code
C:   00000A5B  A$5Code$3265                       5Code
C:   00000A5E  A$5Code$3266                       5Code
C:   00000A61  A$5Code$3267                       5Code
C:   00000A63  A$5Code$3268                       5Code
C:   00000A65  A$5Code$3271                       5Code
C:   00000A65  C$5Code.c$330$4$142                5Code
C:   00000A66  A$5Code$3272                       5Code
C:   00000A68  A$5Code$3273                       5Code
C:   00000A69  A$5Code$3274                       5Code
C:   00000A6B  A$5Code$3275                       5Code
C:   00000A6C  A$5Code$3276                       5Code
C:   00000A6E  A$5Code$3279                       5Code
C:   00000A6E  C$5Code.c$332$5$147                5Code
C:   00000A71  A$5Code$3282                       5Code
C:   00000A71  C$5Code.c$333$5$147                5Code
C:   00000A73  A$5Code$3283                       5Code
C:   00000A75  A$5Code$3284                       5Code
C:   00000A77  A$5Code$3285                       5Code
C:   00000A79  A$5Code$3286                       5Code
C:   00000A7B  A$5Code$3287                       5Code
C:   00000A7D  A$5Code$3288                       5Code
ASxxxx Linker V03.00 + NoICE + sdld,  page 60.
Hexadecimal  [32-Bits]

Area                                    Addr        Size        Decimal Bytes (Attributes)
--------------------------------        ----        ----        ------- ----- ------------
CSEG                                000000DC    000013D1 =        5073. bytes (REL,CON,CODE)

      Value  Global                              Global Defined In Module
      -----  --------------------------------   ------------------------
C:   00000A80  A$5Code$3289                       5Code
C:   00000A82  A$5Code$3290                       5Code
C:   00000A84  A$5Code$3291                       5Code
C:   00000A86  A$5Code$3294                       5Code
C:   00000A86  C$5Code.c$334$5$147                5Code
C:   00000A88  A$5Code$3295                       5Code
C:   00000A8A  A$5Code$3296                       5Code
C:   00000A8C  A$5Code$3297                       5Code
C:   00000A8E  A$5Code$3298                       5Code
C:   00000A90  A$5Code$3299                       5Code
C:   00000A92  A$5Code$3300                       5Code
C:   00000A95  A$5Code$3301                       5Code
C:   00000A97  A$5Code$3302                       5Code
C:   00000A99  A$5Code$3303                       5Code
C:   00000A9B  A$5Code$3306                       5Code
C:   00000A9B  C$5Code.c$335$5$147                5Code
C:   00000A9C  A$5Code$3307                       5Code
C:   00000A9E  A$5Code$3308                       5Code
C:   00000AA0  A$5Code$3312                       5Code
C:   00000AA0  C$5Code.c$336$5$147                5Code
C:   00000AA1  A$5Code$3313                       5Code
C:   00000AA3  A$5Code$3314                       5Code
C:   00000AA5  A$5Code$3315                       5Code
C:   00000AA7  A$5Code$3316                       5Code
C:   00000AA9  A$5Code$3317                       5Code
C:   00000AAB  A$5Code$3320                       5Code
C:   00000AAB  C$5Code.c$341$3$141                5Code
C:   00000AAE  A$5Code$3324                       5Code
C:   00000AAE  C$5Code.c$349$2$131                5Code
C:   00000AB0  A$5Code$3325                       5Code
C:   00000AB2  A$5Code$3326                       5Code
C:   00000AB5  A$5Code$3329                       5Code
C:   00000AB5  C$5Code.c$350$2$131                5Code
C:   00000AB7  A$5Code$3330                       5Code
C:   00000AB9  A$5Code$3331                       5Code
C:   00000ABB  A$5Code$3332                       5Code
C:   00000ABD  A$5Code$3333                       5Code
C:   00000ABF  A$5Code$3334                       5Code
C:   00000AC1  A$5Code$3335                       5Code
C:   00000AC4  A$5Code$3336                       5Code
C:   00000AC6  A$5Code$3337                       5Code
C:   00000AC8  A$5Code$3338                       5Code
C:   00000ACA  A$5Code$3339                       5Code
C:   00000ACC  A$5Code$3340                       5Code
C:   00000ACE  A$5Code$3343                       5Code
C:   00000ACE  C$5Code.c$351$1$130                5Code
C:   00000AD1  A$5Code$3344                       5Code
C:   00000AD4  A$5Code$3345                       5Code
C:   00000AD6  A$5Code$3346                       5Code
C:   00000AD8  A$5Code$3347                       5Code
C:   00000ADA  A$5Code$3348                       5Code
ASxxxx Linker V03.00 + NoICE + sdld,  page 61.
Hexadecimal  [32-Bits]

Area                                    Addr        Size        Decimal Bytes (Attributes)
--------------------------------        ----        ----        ------- ----- ------------
CSEG                                000000DC    000013D1 =        5073. bytes (REL,CON,CODE)

      Value  Global                              Global Defined In Module
      -----  --------------------------------   ------------------------
C:   00000ADC  A$5Code$3349                       5Code
C:   00000ADF  A$5Code$3350                       5Code
C:   00000AE1  A$5Code$3351                       5Code
C:   00000AE3  A$5Code$3352                       5Code
C:   00000AE5  A$5Code$3353                       5Code
C:   00000AE7  A$5Code$3354                       5Code
C:   00000AE9  A$5Code$3355                       5Code
C:   00000AEB  A$5Code$3356                       5Code
C:   00000AED  A$5Code$3357                       5Code
C:   00000AEF  A$5Code$3358                       5Code
C:   00000AF1  A$5Code$3359                       5Code
C:   00000AF3  A$5Code$3360                       5Code
C:   00000AF6  A$5Code$3361                       5Code
C:   00000AF8  A$5Code$3362                       5Code
C:   00000AFA  A$5Code$3363                       5Code
C:   00000AFC  A$5Code$3366                       5Code
C:   00000AFC  C$5Code.c$352$2$131                5Code
C:   00000AFE  A$5Code$3367                       5Code
C:   00000B00  A$5Code$3368                       5Code
C:   00000B02  A$5Code$3369                       5Code
C:   00000B04  A$5Code$3370                       5Code
C:   00000B06  A$5Code$3371                       5Code
C:   00000B08  A$5Code$3372                       5Code
C:   00000B0B  A$5Code$3373                       5Code
C:   00000B0D  A$5Code$3374                       5Code
C:   00000B0F  A$5Code$3375                       5Code
C:   00000B11  A$5Code$3376                       5Code
C:   00000B13  A$5Code$3377                       5Code
C:   00000B15  A$5Code$3380                       5Code
C:   00000B15  C$5Code.c$354$2$131                5Code
C:   00000B16  A$5Code$3381                       5Code
C:   00000B18  A$5Code$3382                       5Code
C:   00000B1A  A$5Code$3386                       5Code
C:   00000B1A  C$5Code.c$355$2$131                5Code
C:   00000B1B  A$5Code$3387                       5Code
C:   00000B1D  A$5Code$3388                       5Code
C:   00000B1F  A$5Code$3389                       5Code
C:   00000B21  A$5Code$3390                       5Code
C:   00000B23  A$5Code$3391                       5Code
C:   00000B25  A$5Code$3394                       5Code
C:   00000B25  C$5Code.c$357$2$131                5Code
C:   00000B27  A$5Code$3395                       5Code
C:   00000B29  A$5Code$3396                       5Code
C:   00000B2C  A$5Code$3399                       5Code
C:   00000B2C  C$5Code.c$358$2$131                5Code
C:   00000B2E  A$5Code$3400                       5Code
C:   00000B30  A$5Code$3401                       5Code
C:   00000B32  A$5Code$3402                       5Code
C:   00000B34  A$5Code$3403                       5Code
C:   00000B36  A$5Code$3404                       5Code
C:   00000B38  A$5Code$3405                       5Code
ASxxxx Linker V03.00 + NoICE + sdld,  page 62.
Hexadecimal  [32-Bits]

Area                                    Addr        Size        Decimal Bytes (Attributes)
--------------------------------        ----        ----        ------- ----- ------------
CSEG                                000000DC    000013D1 =        5073. bytes (REL,CON,CODE)

      Value  Global                              Global Defined In Module
      -----  --------------------------------   ------------------------
C:   00000B3B  A$5Code$3406                       5Code
C:   00000B3D  A$5Code$3407                       5Code
C:   00000B3F  A$5Code$3408                       5Code
C:   00000B41  A$5Code$3411                       5Code
C:   00000B41  C$5Code.c$359$2$131                5Code
C:   00000B43  A$5Code$3412                       5Code
C:   00000B45  A$5Code$3413                       5Code
C:   00000B47  A$5Code$3414                       5Code
C:   00000B49  A$5Code$3415                       5Code
C:   00000B4B  A$5Code$3416                       5Code
C:   00000B4D  A$5Code$3417                       5Code
C:   00000B50  A$5Code$3418                       5Code
C:   00000B52  A$5Code$3419                       5Code
C:   00000B54  A$5Code$3420                       5Code
C:   00000B56  A$5Code$3423                       5Code
C:   00000B56  C$5Code.c$360$2$131                5Code
C:   00000B58  A$5Code$3424                       5Code
C:   00000B5A  A$5Code$3425                       5Code
C:   00000B5C  A$5Code$3426                       5Code
C:   00000B5E  A$5Code$3427                       5Code
C:   00000B60  A$5Code$3428                       5Code
C:   00000B62  A$5Code$3429                       5Code
C:   00000B65  A$5Code$3430                       5Code
C:   00000B67  A$5Code$3431                       5Code
C:   00000B69  A$5Code$3432                       5Code
C:   00000B6B  A$5Code$3435                       5Code
C:   00000B6B  C$5Code.c$363$2$131                5Code
C:   00000B6E  A$5Code$3436                       5Code
C:   00000B70  A$5Code$3437                       5Code
C:   00000B72  A$5Code$3438                       5Code
C:   00000B74  A$5Code$3441                       5Code
C:   00000B74  C$5Code.c$364$2$131                5Code
C:   00000B77  A$5Code$3442                       5Code
C:   00000B7A  A$5Code$3446                       5Code
C:   00000B7A  C$5Code.c$366$3$149                5Code
C:   00000B7C  A$5Code$3447                       5Code
C:   00000B7E  A$5Code$3450                       5Code
C:   00000B7E  C$5Code.c$371$1$130                5Code
C:   00000B7E  XG$getDesiredGains$0$0             5Code
C:   00000B7F  A$5Code$3463                       5Code
C:   00000B7F  C$5Code.c$378$1$130                5Code
C:   00000B7F  C$5Code.c$381$1$150                5Code
C:   00000B7F  G$Port_Init$0$0                    5Code
C:   00000B7F  _Port_Init                         5Code
C:   00000B82  A$5Code$3466                       5Code
C:   00000B82  C$5Code.c$382$1$150                5Code
C:   00000B85  A$5Code$3469                       5Code
C:   00000B85  C$5Code.c$383$1$150                5Code
C:   00000B88  A$5Code$3472                       5Code
C:   00000B88  C$5Code.c$384$1$150                5Code
C:   00000B8A  A$5Code$3473                       5Code
ASxxxx Linker V03.00 + NoICE + sdld,  page 63.
Hexadecimal  [32-Bits]

Area                                    Addr        Size        Decimal Bytes (Attributes)
--------------------------------        ----        ----        ------- ----- ------------
CSEG                                000000DC    000013D1 =        5073. bytes (REL,CON,CODE)

      Value  Global                              Global Defined In Module
      -----  --------------------------------   ------------------------
C:   00000B8C  A$5Code$3474                       5Code
C:   00000B8D  A$5Code$3475                       5Code
C:   00000B8F  A$5Code$3478                       5Code
C:   00000B8F  C$5Code.c$386$1$150                5Code
C:   00000B92  A$5Code$3481                       5Code
C:   00000B92  C$5Code.c$387$1$150                5Code
C:   00000B94  A$5Code$3482                       5Code
C:   00000B96  A$5Code$3483                       5Code
C:   00000B97  A$5Code$3484                       5Code
C:   00000B99  A$5Code$3487                       5Code
C:   00000B99  C$5Code.c$388$1$150                5Code
C:   00000B9C  A$5Code$3490                       5Code
C:   00000B9C  C$5Code.c$389$1$150                5Code
C:   00000B9C  XG$Port_Init$0$0                   5Code
C:   00000B9D  A$5Code$3503                       5Code
C:   00000B9D  C$5Code.c$394$1$150                5Code
C:   00000B9D  C$5Code.c$396$1$152                5Code
C:   00000B9D  G$ADC_Init$0$0                     5Code
C:   00000B9D  _ADC_Init                          5Code
C:   00000BA0  A$5Code$3506                       5Code
C:   00000BA0  C$5Code.c$397$1$152                5Code
C:   00000BA3  A$5Code$3509                       5Code
C:   00000BA3  C$5Code.c$398$1$152                5Code
C:   00000BA6  A$5Code$3512                       5Code
C:   00000BA6  C$5Code.c$400$1$152                5Code
C:   00000BA9  A$5Code$3515                       5Code
C:   00000BA9  C$5Code.c$402$1$152                5Code
C:   00000BA9  XG$ADC_Init$0$0                    5Code
C:   00000BAA  A$5Code$3528                       5Code
C:   00000BAA  C$5Code.c$407$1$152                5Code
C:   00000BAA  C$5Code.c$409$1$153                5Code
C:   00000BAA  G$XBR0_Init$0$0                    5Code
C:   00000BAA  _XBR0_Init                         5Code
C:   00000BAD  A$5Code$3531                       5Code
C:   00000BAD  C$5Code.c$411$1$153                5Code
C:   00000BAD  XG$XBR0_Init$0$0                   5Code
C:   00000BAE  A$5Code$3544                       5Code
C:   00000BAE  C$5Code.c$416$1$153                5Code
C:   00000BAE  C$5Code.c$418$1$155                5Code
C:   00000BAE  G$PCA_Init$0$0                     5Code
C:   00000BAE  _PCA_Init                          5Code
C:   00000BB1  A$5Code$3547                       5Code
C:   00000BB1  C$5Code.c$419$1$155                5Code
C:   00000BB4  A$5Code$3550                       5Code
C:   00000BB4  C$5Code.c$421$1$155                5Code
C:   00000BB7  A$5Code$3553                       5Code
C:   00000BB7  C$5Code.c$423$1$155                5Code
C:   00000BBA  A$5Code$3556                       5Code
C:   00000BBA  C$5Code.c$424$1$155                5Code
C:   00000BBD  A$5Code$3559                       5Code
C:   00000BBD  C$5Code.c$426$1$155                5Code
ASxxxx Linker V03.00 + NoICE + sdld,  page 64.
Hexadecimal  [32-Bits]

Area                                    Addr        Size        Decimal Bytes (Attributes)
--------------------------------        ----        ----        ------- ----- ------------
CSEG                                000000DC    000013D1 =        5073. bytes (REL,CON,CODE)

      Value  Global                              Global Defined In Module
      -----  --------------------------------   ------------------------
C:   00000BC0  A$5Code$3562                       5Code
C:   00000BC0  C$5Code.c$427$1$155                5Code
C:   00000BC2  A$5Code$3565                       5Code
C:   00000BC2  C$5Code.c$428$1$155                5Code
C:   00000BC2  XG$PCA_Init$0$0                    5Code
C:   00000BC3  A$5Code$3576                       5Code
C:   00000BC3  C$5Code.c$433$1$155                5Code
C:   00000BC3  G$PCA_ISR$0$0                      5Code
C:   00000BC3  _PCA_ISR                           5Code
C:   00000BC5  A$5Code$3577                       5Code
C:   00000BC7  A$5Code$3580                       5Code
C:   00000BC7  C$5Code.c$435$1$157                5Code
C:   00000BCA  A$5Code$3583                       5Code
C:   00000BCA  C$5Code.c$437$2$158                5Code
C:   00000BCC  A$5Code$3584                       5Code
C:   00000BCD  A$5Code$3585                       5Code
C:   00000BD0  A$5Code$3586                       5Code
C:   00000BD2  A$5Code$3590                       5Code
C:   00000BD2  C$5Code.c$438$2$158                5Code
C:   00000BD4  A$5Code$3593                       5Code
C:   00000BD4  C$5Code.c$439$2$158                5Code
C:   00000BD7  A$5Code$3594                       5Code
C:   00000BDA  A$5Code$3598                       5Code
C:   00000BDA  C$5Code.c$442$1$157                5Code
C:   00000BDD  A$5Code$3599                       5Code
C:   00000BDF  A$5Code$3600                       5Code
C:   00000BE1  A$5Code$3603                       5Code
C:   00000BE1  C$5Code.c$443$1$157                5Code
C:   00000BE1  XG$PCA_ISR$0$0                     5Code
C:   00000BE2  A$5Code$3620                       5Code
C:   00000BE2  C$5Code.c$448$1$157                5Code
C:   00000BE2  C$5Code.c$450$1$159                5Code
C:   00000BE2  G$SMB0_Init$0$0                    5Code
C:   00000BE2  _SMB0_Init                         5Code
C:   00000BE5  A$5Code$3623                       5Code
C:   00000BE5  C$5Code.c$451$1$159                5Code
C:   00000BE7  A$5Code$3626                       5Code
C:   00000BE7  C$5Code.c$452$1$159                5Code
C:   00000BE7  XG$SMB0_Init$0$0                   5Code
C:   00000BE8  __divuint                          _divuint
C:   00000C11  _atoi                              _atoi
C:   00000CFD  __gptrput                          _gptrput
C:   00000D18  _abs                               abs
C:   00000D25  __mulint                           _mulint
C:   00000D25  __mulint_dummy                     _mulint
C:   00000DB2  _vsprintf                          sprintf
C:   00000DEF  _sprintf                           sprintf
C:   00000E48  _vprintf                           vprintf
C:   00000E61  _printf                            vprintf
C:   00000F33  __print_format                     printf_large
C:   0000143D  _strlen                            _strlen
ASxxxx Linker V03.00 + NoICE + sdld,  page 65.
Hexadecimal  [32-Bits]

Area                                    Addr        Size        Decimal Bytes (Attributes)
--------------------------------        ----        ----        ------- ----- ------------
CSEG                                000000DC    000013D1 =        5073. bytes (REL,CON,CODE)

      Value  Global                              Global Defined In Module
      -----  --------------------------------   ------------------------
C:   00001455  __gptrget                          _gptrget
C:   00001471  __divsint                          _divsint
C:   000014A9  __sdcc_external_startup            _startup

ASxxxx Linker V03.00 + NoICE + sdld,  page 66.
Hexadecimal  [32-Bits]

Area                                    Addr        Size        Decimal Bytes (Attributes)
--------------------------------        ----        ----        ------- ----- ------------
CONST                               000014AD    0000018F =         399. bytes (REL,CON,CODE)

      Value  Global                              Global Defined In Module
      -----  --------------------------------   ------------------------
C:   000014AD  F5Code$__str_0$0$0                 5Code
C:   000014C3  F5Code$__str_1$0$0                 5Code
C:   000014D3  F5Code$__str_2$0$0                 5Code
C:   000014D6  F5Code$__str_3$0$0                 5Code
C:   000014F0  F5Code$__str_4$0$0                 5Code
C:   0000150A  F5Code$__str_5$0$0                 5Code
C:   0000151E  F5Code$__str_6$0$0                 5Code
C:   00001533  F5Code$__str_7$0$0                 5Code
C:   00001548  F5Code$__str_8$0$0                 5Code
C:   0000155D  F5Code$__str_9$0$0                 5Code
C:   00001567  F5Code$__str_10$0$0                5Code
C:   0000157C  F5Code$__str_11$0$0                5Code
C:   00001591  F5Code$__str_12$0$0                5Code
C:   000015A6  F5Code$__str_13$0$0                5Code
C:   000015BE  F5Code$__str_14$0$0                5Code
C:   000015D3  F5Code$__str_15$0$0                5Code
C:   000015E8  F5Code$__str_16$0$0                5Code
C:   000015FC  F5Code$__str_17$0$0                5Code
C:   00001607  F5Code$__str_18$0$0                5Code
C:   0000161C  F5Code$__str_19$0$0                5Code

ASxxxx Linker V03.00 + NoICE + sdld,  page 67.

Files Linked                              [ module(s) ]

C:\Users\Christopher\Google Drive\School\2015 Spring - Embedded Control\Labs\05 - Accel\Code\5Code.rel
                                          [  ]


Libraries Linked                          [ object file ]

C:\Program Files\SDCC\bin\..\lib\small/libint.lib
                                          [ _divuint.rel ]
C:\Program Files\SDCC\bin\..\lib\small/mcs51.lib
                                          [ crtclear.rel ]
C:\Program Files\SDCC\bin\..\lib\small/libsdcc.lib
                                          [ _atoi.rel ]
C:\Program Files\SDCC\bin\..\lib\small/mcs51.lib
                                          [ crtxinit.rel ]
C:\Program Files\SDCC\bin\..\lib\small/libsdcc.lib
                                          [ _gptrput.rel ]
C:\Program Files\SDCC\bin\..\lib\small/libsdcc.lib
                                          [ abs.rel ]
C:\Program Files\SDCC\bin\..\lib\small/libint.lib
                                          [ _mulint.rel ]
C:\Program Files\SDCC\bin\..\lib\small/libsdcc.lib
                                          [ sprintf.rel ]
C:\Program Files\SDCC\bin\..\lib\small/mcs51.lib
                                          [ crtxclear.rel ]
C:\Program Files\SDCC\bin\..\lib\small/libsdcc.lib
                                          [ _bp.rel ]
C:\Program Files\SDCC\bin\..\lib\small/libsdcc.lib
                                          [ vprintf.rel ]
C:\Program Files\SDCC\bin\..\lib\small/libsdcc.lib
                                          [ printf_large.rel ]
C:\Program Files\SDCC\bin\..\lib\small/libsdcc.lib
                                          [ _strlen.rel ]
C:\Program Files\SDCC\bin\..\lib\small/mcs51.lib
                                          [ crtstart.rel ]
C:\Program Files\SDCC\bin\..\lib\small/libsdcc.lib
                                          [ _gptrget.rel ]
C:\Program Files\SDCC\bin\..\lib\small/libint.lib
                                          [ _divsint.rel ]
C:\Program Files\SDCC\bin\..\lib\small/libsdcc.lib
                                          [ _startup.rel ]

ASxxxx Linker V03.00 + NoICE + sdld,  page 68.

User Base Address Definitions

HOME = 0x0000
XSEG = 0x0001
PSEG = 0x0001
ISEG = 0x0000
BSEG = 0x0000

